
HardHackLEDCube.elf:     file format elf32-littlearm

Sections:
Idx Name          Size      VMA       LMA       File off  Algn
  0 .isr_vector   0000010c  08000000  08000000  00001000  2**0
                  CONTENTS, ALLOC, LOAD, READONLY, DATA
  1 .text         00001f5c  0800010c  0800010c  0000110c  2**2
                  CONTENTS, ALLOC, LOAD, READONLY, CODE
  2 .rodata       00000038  08002068  08002068  00003068  2**2
                  CONTENTS, ALLOC, LOAD, READONLY, DATA
  3 .ARM.extab    00000000  080020a0  080020a0  0000400c  2**0
                  CONTENTS
  4 .ARM          00000000  080020a0  080020a0  0000400c  2**0
                  CONTENTS
  5 .preinit_array 00000000  080020a0  080020a0  0000400c  2**0
                  CONTENTS, ALLOC, LOAD, DATA
  6 .init_array   00000004  080020a0  080020a0  000030a0  2**2
                  CONTENTS, ALLOC, LOAD, READONLY, DATA
  7 .fini_array   00000004  080020a4  080020a4  000030a4  2**2
                  CONTENTS, ALLOC, LOAD, READONLY, DATA
  8 .data         0000000c  20000000  080020a8  00004000  2**2
                  CONTENTS, ALLOC, LOAD, DATA
  9 .bss          000000cc  2000000c  080020b4  0000400c  2**2
                  ALLOC
 10 ._user_heap_stack 00000600  200000d8  080020b4  000040d8  2**0
                  ALLOC
 11 .ARM.attributes 00000029  00000000  00000000  0000400c  2**0
                  CONTENTS, READONLY
 12 .debug_info   000077fd  00000000  00000000  00004035  2**0
                  CONTENTS, READONLY, DEBUGGING, OCTETS
 13 .debug_abbrev 00001571  00000000  00000000  0000b832  2**0
                  CONTENTS, READONLY, DEBUGGING, OCTETS
 14 .debug_aranges 000008d0  00000000  00000000  0000cda8  2**3
                  CONTENTS, READONLY, DEBUGGING, OCTETS
 15 .debug_rnglists 000006d1  00000000  00000000  0000d678  2**0
                  CONTENTS, READONLY, DEBUGGING, OCTETS
 16 .debug_macro  0001632e  00000000  00000000  0000dd49  2**0
                  CONTENTS, READONLY, DEBUGGING, OCTETS
 17 .debug_line   0000a9cb  00000000  00000000  00024077  2**0
                  CONTENTS, READONLY, DEBUGGING, OCTETS
 18 .debug_str    000804ee  00000000  00000000  0002ea42  2**0
                  CONTENTS, READONLY, DEBUGGING, OCTETS
 19 .comment      00000043  00000000  00000000  000aef30  2**0
                  CONTENTS, READONLY
 20 .debug_frame  00002424  00000000  00000000  000aef74  2**2
                  CONTENTS, READONLY, DEBUGGING, OCTETS
 21 .debug_line_str 0000006b  00000000  00000000  000b1398  2**0
                  CONTENTS, READONLY, DEBUGGING, OCTETS

Disassembly of section .text:

0800010c <__do_global_dtors_aux>:
 800010c:	b510      	push	{r4, lr}
 800010e:	4c05      	ldr	r4, [pc, #20]	@ (8000124 <__do_global_dtors_aux+0x18>)
 8000110:	7823      	ldrb	r3, [r4, #0]
 8000112:	b933      	cbnz	r3, 8000122 <__do_global_dtors_aux+0x16>
 8000114:	4b04      	ldr	r3, [pc, #16]	@ (8000128 <__do_global_dtors_aux+0x1c>)
 8000116:	b113      	cbz	r3, 800011e <__do_global_dtors_aux+0x12>
 8000118:	4804      	ldr	r0, [pc, #16]	@ (800012c <__do_global_dtors_aux+0x20>)
 800011a:	f3af 8000 	nop.w
 800011e:	2301      	movs	r3, #1
 8000120:	7023      	strb	r3, [r4, #0]
 8000122:	bd10      	pop	{r4, pc}
 8000124:	2000000c 	.word	0x2000000c
 8000128:	00000000 	.word	0x00000000
 800012c:	08002050 	.word	0x08002050

08000130 <frame_dummy>:
 8000130:	b508      	push	{r3, lr}
 8000132:	4b03      	ldr	r3, [pc, #12]	@ (8000140 <frame_dummy+0x10>)
 8000134:	b11b      	cbz	r3, 800013e <frame_dummy+0xe>
 8000136:	4903      	ldr	r1, [pc, #12]	@ (8000144 <frame_dummy+0x14>)
 8000138:	4803      	ldr	r0, [pc, #12]	@ (8000148 <frame_dummy+0x18>)
 800013a:	f3af 8000 	nop.w
 800013e:	bd08      	pop	{r3, pc}
 8000140:	00000000 	.word	0x00000000
 8000144:	20000010 	.word	0x20000010
 8000148:	08002050 	.word	0x08002050

0800014c <setPCAOutput>:
}

/**
 * TODO write function header comment explaining functionality here
 */
void setPCAOutput(uint8_t ledID, bool on) {
 800014c:	b580      	push	{r7, lr}
 800014e:	b086      	sub	sp, #24
 8000150:	af02      	add	r7, sp, #8
 8000152:	4603      	mov	r3, r0
 8000154:	460a      	mov	r2, r1
 8000156:	71fb      	strb	r3, [r7, #7]
 8000158:	4613      	mov	r3, r2
 800015a:	71bb      	strb	r3, [r7, #6]
  uint8_t buf[5];
  buf[0] = (ledID == 16)? ALL_LED_ON_L : LED0_ON_L + (4 * ledID);
 800015c:	79fb      	ldrb	r3, [r7, #7]
 800015e:	2b10      	cmp	r3, #16
 8000160:	d005      	beq.n	800016e <setPCAOutput+0x22>
 8000162:	79fb      	ldrb	r3, [r7, #7]
 8000164:	009b      	lsls	r3, r3, #2
 8000166:	b2db      	uxtb	r3, r3
 8000168:	3306      	adds	r3, #6
 800016a:	b2db      	uxtb	r3, r3
 800016c:	e000      	b.n	8000170 <setPCAOutput+0x24>
 800016e:	23fa      	movs	r3, #250	@ 0xfa
 8000170:	723b      	strb	r3, [r7, #8]
  buf[1] = 0;
 8000172:	2300      	movs	r3, #0
 8000174:	727b      	strb	r3, [r7, #9]
  buf[2] = on? 0b00010000 : 0; // on high byte
 8000176:	79bb      	ldrb	r3, [r7, #6]
 8000178:	2b00      	cmp	r3, #0
 800017a:	d001      	beq.n	8000180 <setPCAOutput+0x34>
 800017c:	2310      	movs	r3, #16
 800017e:	e000      	b.n	8000182 <setPCAOutput+0x36>
 8000180:	2300      	movs	r3, #0
 8000182:	72bb      	strb	r3, [r7, #10]
  buf[3] = 0;
 8000184:	2300      	movs	r3, #0
 8000186:	72fb      	strb	r3, [r7, #11]
  buf[4] = on? 0 : 0b00010000; // off high byte
 8000188:	79bb      	ldrb	r3, [r7, #6]
 800018a:	2b00      	cmp	r3, #0
 800018c:	d001      	beq.n	8000192 <setPCAOutput+0x46>
 800018e:	2300      	movs	r3, #0
 8000190:	e000      	b.n	8000194 <setPCAOutput+0x48>
 8000192:	2310      	movs	r3, #16
 8000194:	733b      	strb	r3, [r7, #12]
  HAL_I2C_Master_Transmit(&hi2c2, PCA9685_ADDR, buf, 5, HAL_MAX_DELAY);
 8000196:	f107 0208 	add.w	r2, r7, #8
 800019a:	f04f 33ff 	mov.w	r3, #4294967295
 800019e:	9300      	str	r3, [sp, #0]
 80001a0:	2305      	movs	r3, #5
 80001a2:	21e0      	movs	r1, #224	@ 0xe0
 80001a4:	4803      	ldr	r0, [pc, #12]	@ (80001b4 <setPCAOutput+0x68>)
 80001a6:	f000 ff4f 	bl	8001048 <HAL_I2C_Master_Transmit>
}
 80001aa:	bf00      	nop
 80001ac:	3710      	adds	r7, #16
 80001ae:	46bd      	mov	sp, r7
 80001b0:	bd80      	pop	{r7, pc}
 80001b2:	bf00      	nop
 80001b4:	20000028 	.word	0x20000028

080001b8 <resetEverything>:
    HAL_Delay(500);
  }
}


void resetEverything() {
 80001b8:	b580      	push	{r7, lr}
 80001ba:	b082      	sub	sp, #8
 80001bc:	af00      	add	r7, sp, #0
  for (int i = 0; i < 16; i++) {
 80001be:	2300      	movs	r3, #0
 80001c0:	607b      	str	r3, [r7, #4]
 80001c2:	e008      	b.n	80001d6 <resetEverything+0x1e>
    setPCAOutput(i, true);
 80001c4:	687b      	ldr	r3, [r7, #4]
 80001c6:	b2db      	uxtb	r3, r3
 80001c8:	2101      	movs	r1, #1
 80001ca:	4618      	mov	r0, r3
 80001cc:	f7ff ffbe 	bl	800014c <setPCAOutput>
  for (int i = 0; i < 16; i++) {
 80001d0:	687b      	ldr	r3, [r7, #4]
 80001d2:	3301      	adds	r3, #1
 80001d4:	607b      	str	r3, [r7, #4]
 80001d6:	687b      	ldr	r3, [r7, #4]
 80001d8:	2b0f      	cmp	r3, #15
 80001da:	ddf3      	ble.n	80001c4 <resetEverything+0xc>
  }
}
 80001dc:	bf00      	nop
 80001de:	bf00      	nop
 80001e0:	3708      	adds	r7, #8
 80001e2:	46bd      	mov	sp, r7
 80001e4:	bd80      	pop	{r7, pc}
	...

080001e8 <corners>:
  setPCAOutput(11, !false);
  setPCAOutput(12, !false);
  setPCAOutput(14, !false);
}

void corners() {
 80001e8:	b580      	push	{r7, lr}
 80001ea:	b082      	sub	sp, #8
 80001ec:	af00      	add	r7, sp, #0
  resetEverything();
 80001ee:	f7ff ffe3 	bl	80001b8 <resetEverything>

  for (int i = 0; i < 4; i++) {
 80001f2:	2300      	movs	r3, #0
 80001f4:	607b      	str	r3, [r7, #4]
 80001f6:	e080      	b.n	80002fa <corners+0x112>
    for (int j = 0; j < 4; j++) {
 80001f8:	2300      	movs	r3, #0
 80001fa:	603b      	str	r3, [r7, #0]
 80001fc:	e00b      	b.n	8000216 <corners+0x2e>
      HAL_GPIO_WritePin(TRANSISTOR_PORT, transistorPinMap[j], GPIO_PIN_RESET);
 80001fe:	4a43      	ldr	r2, [pc, #268]	@ (800030c <corners+0x124>)
 8000200:	683b      	ldr	r3, [r7, #0]
 8000202:	f832 3013 	ldrh.w	r3, [r2, r3, lsl #1]
 8000206:	2200      	movs	r2, #0
 8000208:	4619      	mov	r1, r3
 800020a:	4841      	ldr	r0, [pc, #260]	@ (8000310 <corners+0x128>)
 800020c:	f000 fdc0 	bl	8000d90 <HAL_GPIO_WritePin>
    for (int j = 0; j < 4; j++) {
 8000210:	683b      	ldr	r3, [r7, #0]
 8000212:	3301      	adds	r3, #1
 8000214:	603b      	str	r3, [r7, #0]
 8000216:	683b      	ldr	r3, [r7, #0]
 8000218:	2b03      	cmp	r3, #3
 800021a:	ddf0      	ble.n	80001fe <corners+0x16>
    }

    HAL_GPIO_WritePin(TRANSISTOR_PORT, transistorPinMap[i], GPIO_PIN_SET);
 800021c:	4a3b      	ldr	r2, [pc, #236]	@ (800030c <corners+0x124>)
 800021e:	687b      	ldr	r3, [r7, #4]
 8000220:	f832 3013 	ldrh.w	r3, [r2, r3, lsl #1]
 8000224:	2201      	movs	r2, #1
 8000226:	4619      	mov	r1, r3
 8000228:	4839      	ldr	r0, [pc, #228]	@ (8000310 <corners+0x128>)
 800022a:	f000 fdb1 	bl	8000d90 <HAL_GPIO_WritePin>

    setPCAOutput(4, false);
 800022e:	2100      	movs	r1, #0
 8000230:	2004      	movs	r0, #4
 8000232:	f7ff ff8b 	bl	800014c <setPCAOutput>
    HAL_Delay(200);
 8000236:	20c8      	movs	r0, #200	@ 0xc8
 8000238:	f000 fb1e 	bl	8000878 <HAL_Delay>

    setPCAOutput(3, false);
 800023c:	2100      	movs	r1, #0
 800023e:	2003      	movs	r0, #3
 8000240:	f7ff ff84 	bl	800014c <setPCAOutput>
    setPCAOutput(7, false);
 8000244:	2100      	movs	r1, #0
 8000246:	2007      	movs	r0, #7
 8000248:	f7ff ff80 	bl	800014c <setPCAOutput>
    HAL_Delay(200);
 800024c:	20c8      	movs	r0, #200	@ 0xc8
 800024e:	f000 fb13 	bl	8000878 <HAL_Delay>

    setPCAOutput(1, false);
 8000252:	2100      	movs	r1, #0
 8000254:	2001      	movs	r0, #1
 8000256:	f7ff ff79 	bl	800014c <setPCAOutput>
    setPCAOutput(6, false);
 800025a:	2100      	movs	r1, #0
 800025c:	2006      	movs	r0, #6
 800025e:	f7ff ff75 	bl	800014c <setPCAOutput>
    setPCAOutput(11, false);
 8000262:	2100      	movs	r1, #0
 8000264:	200b      	movs	r0, #11
 8000266:	f7ff ff71 	bl	800014c <setPCAOutput>
    HAL_Delay(200);
 800026a:	20c8      	movs	r0, #200	@ 0xc8
 800026c:	f000 fb04 	bl	8000878 <HAL_Delay>

    setPCAOutput(0, false);
 8000270:	2100      	movs	r1, #0
 8000272:	2000      	movs	r0, #0
 8000274:	f7ff ff6a 	bl	800014c <setPCAOutput>
    setPCAOutput(5, false);
 8000278:	2100      	movs	r1, #0
 800027a:	2005      	movs	r0, #5
 800027c:	f7ff ff66 	bl	800014c <setPCAOutput>
    setPCAOutput(10, false);
 8000280:	2100      	movs	r1, #0
 8000282:	200a      	movs	r0, #10
 8000284:	f7ff ff62 	bl	800014c <setPCAOutput>
    setPCAOutput(15, false);
 8000288:	2100      	movs	r1, #0
 800028a:	200f      	movs	r0, #15
 800028c:	f7ff ff5e 	bl	800014c <setPCAOutput>
    HAL_Delay(200);
 8000290:	20c8      	movs	r0, #200	@ 0xc8
 8000292:	f000 faf1 	bl	8000878 <HAL_Delay>

    setPCAOutput(4, false);
 8000296:	2100      	movs	r1, #0
 8000298:	2004      	movs	r0, #4
 800029a:	f7ff ff57 	bl	800014c <setPCAOutput>
    setPCAOutput(9, false);
 800029e:	2100      	movs	r1, #0
 80002a0:	2009      	movs	r0, #9
 80002a2:	f7ff ff53 	bl	800014c <setPCAOutput>
    setPCAOutput(14, false);
 80002a6:	2100      	movs	r1, #0
 80002a8:	200e      	movs	r0, #14
 80002aa:	f7ff ff4f 	bl	800014c <setPCAOutput>
    HAL_Delay(200);
 80002ae:	20c8      	movs	r0, #200	@ 0xc8
 80002b0:	f000 fae2 	bl	8000878 <HAL_Delay>

    setPCAOutput(8, false);
 80002b4:	2100      	movs	r1, #0
 80002b6:	2008      	movs	r0, #8
 80002b8:	f7ff ff48 	bl	800014c <setPCAOutput>
    setPCAOutput(13, false);
 80002bc:	2100      	movs	r1, #0
 80002be:	200d      	movs	r0, #13
 80002c0:	f7ff ff44 	bl	800014c <setPCAOutput>
    HAL_Delay(200);
 80002c4:	20c8      	movs	r0, #200	@ 0xc8
 80002c6:	f000 fad7 	bl	8000878 <HAL_Delay>

    setPCAOutput(12, false);
 80002ca:	2100      	movs	r1, #0
 80002cc:	200c      	movs	r0, #12
 80002ce:	f7ff ff3d 	bl	800014c <setPCAOutput>
    HAL_Delay(200);
 80002d2:	20c8      	movs	r0, #200	@ 0xc8
 80002d4:	f000 fad0 	bl	8000878 <HAL_Delay>

    HAL_GPIO_WritePin(TRANSISTOR_PORT, transistorPinMap[i], GPIO_PIN_RESET);
 80002d8:	4a0c      	ldr	r2, [pc, #48]	@ (800030c <corners+0x124>)
 80002da:	687b      	ldr	r3, [r7, #4]
 80002dc:	f832 3013 	ldrh.w	r3, [r2, r3, lsl #1]
 80002e0:	2200      	movs	r2, #0
 80002e2:	4619      	mov	r1, r3
 80002e4:	480a      	ldr	r0, [pc, #40]	@ (8000310 <corners+0x128>)
 80002e6:	f000 fd53 	bl	8000d90 <HAL_GPIO_WritePin>

    resetEverything();
 80002ea:	f7ff ff65 	bl	80001b8 <resetEverything>
    HAL_Delay(200);
 80002ee:	20c8      	movs	r0, #200	@ 0xc8
 80002f0:	f000 fac2 	bl	8000878 <HAL_Delay>
  for (int i = 0; i < 4; i++) {
 80002f4:	687b      	ldr	r3, [r7, #4]
 80002f6:	3301      	adds	r3, #1
 80002f8:	607b      	str	r3, [r7, #4]
 80002fa:	687b      	ldr	r3, [r7, #4]
 80002fc:	2b03      	cmp	r3, #3
 80002fe:	f77f af7b 	ble.w	80001f8 <corners+0x10>
  }
}
 8000302:	bf00      	nop
 8000304:	bf00      	nop
 8000306:	3708      	adds	r7, #8
 8000308:	46bd      	mov	sp, r7
 800030a:	bd80      	pop	{r7, pc}
 800030c:	08002068 	.word	0x08002068
 8000310:	40010c00 	.word	0x40010c00

08000314 <main>:
/**
  * @brief  The application entry point.
  * @retval int
  */
int main(void)
{
 8000314:	b580      	push	{r7, lr}
 8000316:	b084      	sub	sp, #16
 8000318:	af02      	add	r7, sp, #8
  /* USER CODE END 1 */

  /* MCU Configuration--------------------------------------------------------*/

  /* Reset of all peripherals, Initializes the Flash interface and the Systick. */
  HAL_Init();
 800031a:	f000 fa4b 	bl	80007b4 <HAL_Init>
  /* USER CODE BEGIN Init */

  /* USER CODE END Init */

  /* Configure the system clock */
  SystemClock_Config();
 800031e:	f000 f819 	bl	8000354 <SystemClock_Config>
  /* USER CODE BEGIN SysInit */

  /* USER CODE END SysInit */

  /* Initialize all configured peripherals */
  MX_GPIO_Init();
 8000322:	f000 f8b3 	bl	800048c <MX_GPIO_Init>
  MX_I2C2_Init();
 8000326:	f000 f851 	bl	80003cc <MX_I2C2_Init>
  MX_SPI2_Init();
 800032a:	f000 f87d 	bl	8000428 <MX_SPI2_Init>
  /* USER CODE BEGIN 2 */

  // write to mode register 1 (needed to turn off the PWM "sleep")
  uint8_t buf[2];
  buf[0] = 0x00;
 800032e:	2300      	movs	r3, #0
 8000330:	713b      	strb	r3, [r7, #4]
  buf[1] = 0b00100001;
 8000332:	2321      	movs	r3, #33	@ 0x21
 8000334:	717b      	strb	r3, [r7, #5]
  HAL_I2C_Master_Transmit(&hi2c2, PCA9685_ADDR, buf, 2, HAL_MAX_DELAY);
 8000336:	1d3a      	adds	r2, r7, #4
 8000338:	f04f 33ff 	mov.w	r3, #4294967295
 800033c:	9300      	str	r3, [sp, #0]
 800033e:	2302      	movs	r3, #2
 8000340:	21e0      	movs	r1, #224	@ 0xe0
 8000342:	4803      	ldr	r0, [pc, #12]	@ (8000350 <main+0x3c>)
 8000344:	f000 fe80 	bl	8001048 <HAL_I2C_Master_Transmit>
//    driveLEDs(rawState);
//    testLEDs();
//    sideAnimDONTUSE();
//    spinningColumn();
//    checkerboard();
    corners();
 8000348:	f7ff ff4e 	bl	80001e8 <corners>
 800034c:	e7fc      	b.n	8000348 <main+0x34>
 800034e:	bf00      	nop
 8000350:	20000028 	.word	0x20000028

08000354 <SystemClock_Config>:
/**
  * @brief System Clock Configuration
  * @retval None
  */
void SystemClock_Config(void)
{
 8000354:	b580      	push	{r7, lr}
 8000356:	b090      	sub	sp, #64	@ 0x40
 8000358:	af00      	add	r7, sp, #0
  RCC_OscInitTypeDef RCC_OscInitStruct = {0};
 800035a:	f107 0318 	add.w	r3, r7, #24
 800035e:	2228      	movs	r2, #40	@ 0x28
 8000360:	2100      	movs	r1, #0
 8000362:	4618      	mov	r0, r3
 8000364:	f001 fe48 	bl	8001ff8 <memset>
  RCC_ClkInitTypeDef RCC_ClkInitStruct = {0};
 8000368:	1d3b      	adds	r3, r7, #4
 800036a:	2200      	movs	r2, #0
 800036c:	601a      	str	r2, [r3, #0]
 800036e:	605a      	str	r2, [r3, #4]
 8000370:	609a      	str	r2, [r3, #8]
 8000372:	60da      	str	r2, [r3, #12]
 8000374:	611a      	str	r2, [r3, #16]

  /** Initializes the RCC Oscillators according to the specified parameters
  * in the RCC_OscInitTypeDef structure.
  */
  RCC_OscInitStruct.OscillatorType = RCC_OSCILLATORTYPE_HSI;
 8000376:	2302      	movs	r3, #2
 8000378:	61bb      	str	r3, [r7, #24]
  RCC_OscInitStruct.HSIState = RCC_HSI_ON;
 800037a:	2301      	movs	r3, #1
 800037c:	62bb      	str	r3, [r7, #40]	@ 0x28
  RCC_OscInitStruct.HSICalibrationValue = RCC_HSICALIBRATION_DEFAULT;
 800037e:	2310      	movs	r3, #16
 8000380:	62fb      	str	r3, [r7, #44]	@ 0x2c
  RCC_OscInitStruct.PLL.PLLState = RCC_PLL_NONE;
 8000382:	2300      	movs	r3, #0
 8000384:	637b      	str	r3, [r7, #52]	@ 0x34
  if (HAL_RCC_OscConfig(&RCC_OscInitStruct) != HAL_OK)
 8000386:	f107 0318 	add.w	r3, r7, #24
 800038a:	4618      	mov	r0, r3
 800038c:	f001 f9b4 	bl	80016f8 <HAL_RCC_OscConfig>
 8000390:	4603      	mov	r3, r0
 8000392:	2b00      	cmp	r3, #0
 8000394:	d001      	beq.n	800039a <SystemClock_Config+0x46>
  {
    Error_Handler();
 8000396:	f000 f8fd 	bl	8000594 <Error_Handler>
  }

  /** Initializes the CPU, AHB and APB buses clocks
  */
  RCC_ClkInitStruct.ClockType = RCC_CLOCKTYPE_HCLK|RCC_CLOCKTYPE_SYSCLK
 800039a:	230f      	movs	r3, #15
 800039c:	607b      	str	r3, [r7, #4]
                              |RCC_CLOCKTYPE_PCLK1|RCC_CLOCKTYPE_PCLK2;
  RCC_ClkInitStruct.SYSCLKSource = RCC_SYSCLKSOURCE_HSI;
 800039e:	2300      	movs	r3, #0
 80003a0:	60bb      	str	r3, [r7, #8]
  RCC_ClkInitStruct.AHBCLKDivider = RCC_SYSCLK_DIV1;
 80003a2:	2300      	movs	r3, #0
 80003a4:	60fb      	str	r3, [r7, #12]
  RCC_ClkInitStruct.APB1CLKDivider = RCC_HCLK_DIV2;
 80003a6:	f44f 6380 	mov.w	r3, #1024	@ 0x400
 80003aa:	613b      	str	r3, [r7, #16]
  RCC_ClkInitStruct.APB2CLKDivider = RCC_HCLK_DIV1;
 80003ac:	2300      	movs	r3, #0
 80003ae:	617b      	str	r3, [r7, #20]

  if (HAL_RCC_ClockConfig(&RCC_ClkInitStruct, FLASH_LATENCY_0) != HAL_OK)
 80003b0:	1d3b      	adds	r3, r7, #4
 80003b2:	2100      	movs	r1, #0
 80003b4:	4618      	mov	r0, r3
 80003b6:	f001 fc21 	bl	8001bfc <HAL_RCC_ClockConfig>
 80003ba:	4603      	mov	r3, r0
 80003bc:	2b00      	cmp	r3, #0
 80003be:	d001      	beq.n	80003c4 <SystemClock_Config+0x70>
  {
    Error_Handler();
 80003c0:	f000 f8e8 	bl	8000594 <Error_Handler>
  }
}
 80003c4:	bf00      	nop
 80003c6:	3740      	adds	r7, #64	@ 0x40
 80003c8:	46bd      	mov	sp, r7
 80003ca:	bd80      	pop	{r7, pc}

080003cc <MX_I2C2_Init>:
  * @brief I2C2 Initialization Function
  * @param None
  * @retval None
  */
static void MX_I2C2_Init(void)
{
 80003cc:	b580      	push	{r7, lr}
 80003ce:	af00      	add	r7, sp, #0
  /* USER CODE END I2C2_Init 0 */

  /* USER CODE BEGIN I2C2_Init 1 */

  /* USER CODE END I2C2_Init 1 */
  hi2c2.Instance = I2C2;
 80003d0:	4b12      	ldr	r3, [pc, #72]	@ (800041c <MX_I2C2_Init+0x50>)
 80003d2:	4a13      	ldr	r2, [pc, #76]	@ (8000420 <MX_I2C2_Init+0x54>)
 80003d4:	601a      	str	r2, [r3, #0]
  hi2c2.Init.ClockSpeed = 400000;
 80003d6:	4b11      	ldr	r3, [pc, #68]	@ (800041c <MX_I2C2_Init+0x50>)
 80003d8:	4a12      	ldr	r2, [pc, #72]	@ (8000424 <MX_I2C2_Init+0x58>)
 80003da:	605a      	str	r2, [r3, #4]
  hi2c2.Init.DutyCycle = I2C_DUTYCYCLE_2;
 80003dc:	4b0f      	ldr	r3, [pc, #60]	@ (800041c <MX_I2C2_Init+0x50>)
 80003de:	2200      	movs	r2, #0
 80003e0:	609a      	str	r2, [r3, #8]
  hi2c2.Init.OwnAddress1 = 0;
 80003e2:	4b0e      	ldr	r3, [pc, #56]	@ (800041c <MX_I2C2_Init+0x50>)
 80003e4:	2200      	movs	r2, #0
 80003e6:	60da      	str	r2, [r3, #12]
  hi2c2.Init.AddressingMode = I2C_ADDRESSINGMODE_7BIT;
 80003e8:	4b0c      	ldr	r3, [pc, #48]	@ (800041c <MX_I2C2_Init+0x50>)
 80003ea:	f44f 4280 	mov.w	r2, #16384	@ 0x4000
 80003ee:	611a      	str	r2, [r3, #16]
  hi2c2.Init.DualAddressMode = I2C_DUALADDRESS_DISABLE;
 80003f0:	4b0a      	ldr	r3, [pc, #40]	@ (800041c <MX_I2C2_Init+0x50>)
 80003f2:	2200      	movs	r2, #0
 80003f4:	615a      	str	r2, [r3, #20]
  hi2c2.Init.OwnAddress2 = 0;
 80003f6:	4b09      	ldr	r3, [pc, #36]	@ (800041c <MX_I2C2_Init+0x50>)
 80003f8:	2200      	movs	r2, #0
 80003fa:	619a      	str	r2, [r3, #24]
  hi2c2.Init.GeneralCallMode = I2C_GENERALCALL_DISABLE;
 80003fc:	4b07      	ldr	r3, [pc, #28]	@ (800041c <MX_I2C2_Init+0x50>)
 80003fe:	2200      	movs	r2, #0
 8000400:	61da      	str	r2, [r3, #28]
  hi2c2.Init.NoStretchMode = I2C_NOSTRETCH_DISABLE;
 8000402:	4b06      	ldr	r3, [pc, #24]	@ (800041c <MX_I2C2_Init+0x50>)
 8000404:	2200      	movs	r2, #0
 8000406:	621a      	str	r2, [r3, #32]
  if (HAL_I2C_Init(&hi2c2) != HAL_OK)
 8000408:	4804      	ldr	r0, [pc, #16]	@ (800041c <MX_I2C2_Init+0x50>)
 800040a:	f000 fcd9 	bl	8000dc0 <HAL_I2C_Init>
 800040e:	4603      	mov	r3, r0
 8000410:	2b00      	cmp	r3, #0
 8000412:	d001      	beq.n	8000418 <MX_I2C2_Init+0x4c>
  {
    Error_Handler();
 8000414:	f000 f8be 	bl	8000594 <Error_Handler>
  }
  /* USER CODE BEGIN I2C2_Init 2 */

  /* USER CODE END I2C2_Init 2 */

}
 8000418:	bf00      	nop
 800041a:	bd80      	pop	{r7, pc}
 800041c:	20000028 	.word	0x20000028
 8000420:	40005800 	.word	0x40005800
 8000424:	00061a80 	.word	0x00061a80

08000428 <MX_SPI2_Init>:
  * @brief SPI2 Initialization Function
  * @param None
  * @retval None
  */
static void MX_SPI2_Init(void)
{
 8000428:	b580      	push	{r7, lr}
 800042a:	af00      	add	r7, sp, #0

  /* USER CODE BEGIN SPI2_Init 1 */

  /* USER CODE END SPI2_Init 1 */
  /* SPI2 parameter configuration*/
  hspi2.Instance = SPI2;
 800042c:	4b15      	ldr	r3, [pc, #84]	@ (8000484 <MX_SPI2_Init+0x5c>)
 800042e:	4a16      	ldr	r2, [pc, #88]	@ (8000488 <MX_SPI2_Init+0x60>)
 8000430:	601a      	str	r2, [r3, #0]
  hspi2.Init.Mode = SPI_MODE_SLAVE;
 8000432:	4b14      	ldr	r3, [pc, #80]	@ (8000484 <MX_SPI2_Init+0x5c>)
 8000434:	2200      	movs	r2, #0
 8000436:	605a      	str	r2, [r3, #4]
  hspi2.Init.Direction = SPI_DIRECTION_2LINES_RXONLY;
 8000438:	4b12      	ldr	r3, [pc, #72]	@ (8000484 <MX_SPI2_Init+0x5c>)
 800043a:	f44f 6280 	mov.w	r2, #1024	@ 0x400
 800043e:	609a      	str	r2, [r3, #8]
  hspi2.Init.DataSize = SPI_DATASIZE_8BIT;
 8000440:	4b10      	ldr	r3, [pc, #64]	@ (8000484 <MX_SPI2_Init+0x5c>)
 8000442:	2200      	movs	r2, #0
 8000444:	60da      	str	r2, [r3, #12]
  hspi2.Init.CLKPolarity = SPI_POLARITY_LOW;
 8000446:	4b0f      	ldr	r3, [pc, #60]	@ (8000484 <MX_SPI2_Init+0x5c>)
 8000448:	2200      	movs	r2, #0
 800044a:	611a      	str	r2, [r3, #16]
  hspi2.Init.CLKPhase = SPI_PHASE_1EDGE;
 800044c:	4b0d      	ldr	r3, [pc, #52]	@ (8000484 <MX_SPI2_Init+0x5c>)
 800044e:	2200      	movs	r2, #0
 8000450:	615a      	str	r2, [r3, #20]
  hspi2.Init.NSS = SPI_NSS_HARD_INPUT;
 8000452:	4b0c      	ldr	r3, [pc, #48]	@ (8000484 <MX_SPI2_Init+0x5c>)
 8000454:	2200      	movs	r2, #0
 8000456:	619a      	str	r2, [r3, #24]
  hspi2.Init.FirstBit = SPI_FIRSTBIT_MSB;
 8000458:	4b0a      	ldr	r3, [pc, #40]	@ (8000484 <MX_SPI2_Init+0x5c>)
 800045a:	2200      	movs	r2, #0
 800045c:	621a      	str	r2, [r3, #32]
  hspi2.Init.TIMode = SPI_TIMODE_DISABLE;
 800045e:	4b09      	ldr	r3, [pc, #36]	@ (8000484 <MX_SPI2_Init+0x5c>)
 8000460:	2200      	movs	r2, #0
 8000462:	625a      	str	r2, [r3, #36]	@ 0x24
  hspi2.Init.CRCCalculation = SPI_CRCCALCULATION_DISABLE;
 8000464:	4b07      	ldr	r3, [pc, #28]	@ (8000484 <MX_SPI2_Init+0x5c>)
 8000466:	2200      	movs	r2, #0
 8000468:	629a      	str	r2, [r3, #40]	@ 0x28
  hspi2.Init.CRCPolynomial = 10;
 800046a:	4b06      	ldr	r3, [pc, #24]	@ (8000484 <MX_SPI2_Init+0x5c>)
 800046c:	220a      	movs	r2, #10
 800046e:	62da      	str	r2, [r3, #44]	@ 0x2c
  if (HAL_SPI_Init(&hspi2) != HAL_OK)
 8000470:	4804      	ldr	r0, [pc, #16]	@ (8000484 <MX_SPI2_Init+0x5c>)
 8000472:	f001 fd3d 	bl	8001ef0 <HAL_SPI_Init>
 8000476:	4603      	mov	r3, r0
 8000478:	2b00      	cmp	r3, #0
 800047a:	d001      	beq.n	8000480 <MX_SPI2_Init+0x58>
  {
    Error_Handler();
 800047c:	f000 f88a 	bl	8000594 <Error_Handler>
  }
  /* USER CODE BEGIN SPI2_Init 2 */

  /* USER CODE END SPI2_Init 2 */

}
 8000480:	bf00      	nop
 8000482:	bd80      	pop	{r7, pc}
 8000484:	2000007c 	.word	0x2000007c
 8000488:	40003800 	.word	0x40003800

0800048c <MX_GPIO_Init>:
  * @brief GPIO Initialization Function
  * @param None
  * @retval None
  */
static void MX_GPIO_Init(void)
{
 800048c:	b580      	push	{r7, lr}
 800048e:	b088      	sub	sp, #32
 8000490:	af00      	add	r7, sp, #0
  GPIO_InitTypeDef GPIO_InitStruct = {0};
 8000492:	f107 0310 	add.w	r3, r7, #16
 8000496:	2200      	movs	r2, #0
 8000498:	601a      	str	r2, [r3, #0]
 800049a:	605a      	str	r2, [r3, #4]
 800049c:	609a      	str	r2, [r3, #8]
 800049e:	60da      	str	r2, [r3, #12]
/* USER CODE BEGIN MX_GPIO_Init_1 */
/* USER CODE END MX_GPIO_Init_1 */

  /* GPIO Ports Clock Enable */
  __HAL_RCC_GPIOC_CLK_ENABLE();
 80004a0:	4b38      	ldr	r3, [pc, #224]	@ (8000584 <MX_GPIO_Init+0xf8>)
 80004a2:	699b      	ldr	r3, [r3, #24]
 80004a4:	4a37      	ldr	r2, [pc, #220]	@ (8000584 <MX_GPIO_Init+0xf8>)
 80004a6:	f043 0310 	orr.w	r3, r3, #16
 80004aa:	6193      	str	r3, [r2, #24]
 80004ac:	4b35      	ldr	r3, [pc, #212]	@ (8000584 <MX_GPIO_Init+0xf8>)
 80004ae:	699b      	ldr	r3, [r3, #24]
 80004b0:	f003 0310 	and.w	r3, r3, #16
 80004b4:	60fb      	str	r3, [r7, #12]
 80004b6:	68fb      	ldr	r3, [r7, #12]
  __HAL_RCC_GPIOD_CLK_ENABLE();
 80004b8:	4b32      	ldr	r3, [pc, #200]	@ (8000584 <MX_GPIO_Init+0xf8>)
 80004ba:	699b      	ldr	r3, [r3, #24]
 80004bc:	4a31      	ldr	r2, [pc, #196]	@ (8000584 <MX_GPIO_Init+0xf8>)
 80004be:	f043 0320 	orr.w	r3, r3, #32
 80004c2:	6193      	str	r3, [r2, #24]
 80004c4:	4b2f      	ldr	r3, [pc, #188]	@ (8000584 <MX_GPIO_Init+0xf8>)
 80004c6:	699b      	ldr	r3, [r3, #24]
 80004c8:	f003 0320 	and.w	r3, r3, #32
 80004cc:	60bb      	str	r3, [r7, #8]
 80004ce:	68bb      	ldr	r3, [r7, #8]
  __HAL_RCC_GPIOA_CLK_ENABLE();
 80004d0:	4b2c      	ldr	r3, [pc, #176]	@ (8000584 <MX_GPIO_Init+0xf8>)
 80004d2:	699b      	ldr	r3, [r3, #24]
 80004d4:	4a2b      	ldr	r2, [pc, #172]	@ (8000584 <MX_GPIO_Init+0xf8>)
 80004d6:	f043 0304 	orr.w	r3, r3, #4
 80004da:	6193      	str	r3, [r2, #24]
 80004dc:	4b29      	ldr	r3, [pc, #164]	@ (8000584 <MX_GPIO_Init+0xf8>)
 80004de:	699b      	ldr	r3, [r3, #24]
 80004e0:	f003 0304 	and.w	r3, r3, #4
 80004e4:	607b      	str	r3, [r7, #4]
 80004e6:	687b      	ldr	r3, [r7, #4]
  __HAL_RCC_GPIOB_CLK_ENABLE();
 80004e8:	4b26      	ldr	r3, [pc, #152]	@ (8000584 <MX_GPIO_Init+0xf8>)
 80004ea:	699b      	ldr	r3, [r3, #24]
 80004ec:	4a25      	ldr	r2, [pc, #148]	@ (8000584 <MX_GPIO_Init+0xf8>)
 80004ee:	f043 0308 	orr.w	r3, r3, #8
 80004f2:	6193      	str	r3, [r2, #24]
 80004f4:	4b23      	ldr	r3, [pc, #140]	@ (8000584 <MX_GPIO_Init+0xf8>)
 80004f6:	699b      	ldr	r3, [r3, #24]
 80004f8:	f003 0308 	and.w	r3, r3, #8
 80004fc:	603b      	str	r3, [r7, #0]
 80004fe:	683b      	ldr	r3, [r7, #0]

  /*Configure GPIO pin Output Level */
  HAL_GPIO_WritePin(GPIOC, GPIO_PIN_13, GPIO_PIN_RESET);
 8000500:	2200      	movs	r2, #0
 8000502:	f44f 5100 	mov.w	r1, #8192	@ 0x2000
 8000506:	4820      	ldr	r0, [pc, #128]	@ (8000588 <MX_GPIO_Init+0xfc>)
 8000508:	f000 fc42 	bl	8000d90 <HAL_GPIO_WritePin>

  /*Configure GPIO pin Output Level */
  HAL_GPIO_WritePin(GPIOA, CORNER_LED_0_Pin|CORNER_LED_1_Pin|CORNER_LED_2_Pin|CORNER_LED_3_Pin
 800050c:	2200      	movs	r2, #0
 800050e:	21ff      	movs	r1, #255	@ 0xff
 8000510:	481e      	ldr	r0, [pc, #120]	@ (800058c <MX_GPIO_Init+0x100>)
 8000512:	f000 fc3d 	bl	8000d90 <HAL_GPIO_WritePin>
                          |CORNER_LED_4_Pin|CORNER_LED_5_Pin|CORNER_LED_6_Pin|CORNER_LED_7_Pin, GPIO_PIN_RESET);

  /*Configure GPIO pin Output Level */
  HAL_GPIO_WritePin(GPIOB, TRANSISTOR_0_Pin|TRANSISTOR_1_Pin|TRANSISTOR_2_Pin|TRANSISTOR_3_Pin
 8000516:	2200      	movs	r2, #0
 8000518:	f44f 717c 	mov.w	r1, #1008	@ 0x3f0
 800051c:	481c      	ldr	r0, [pc, #112]	@ (8000590 <MX_GPIO_Init+0x104>)
 800051e:	f000 fc37 	bl	8000d90 <HAL_GPIO_WritePin>
                          |TRANSISTOR_4_Pin|TRANSISTOR_5_Pin, GPIO_PIN_RESET);

  /*Configure GPIO pin : PC13 */
  GPIO_InitStruct.Pin = GPIO_PIN_13;
 8000522:	f44f 5300 	mov.w	r3, #8192	@ 0x2000
 8000526:	613b      	str	r3, [r7, #16]
  GPIO_InitStruct.Mode = GPIO_MODE_OUTPUT_PP;
 8000528:	2301      	movs	r3, #1
 800052a:	617b      	str	r3, [r7, #20]
  GPIO_InitStruct.Pull = GPIO_NOPULL;
 800052c:	2300      	movs	r3, #0
 800052e:	61bb      	str	r3, [r7, #24]
  GPIO_InitStruct.Speed = GPIO_SPEED_FREQ_LOW;
 8000530:	2302      	movs	r3, #2
 8000532:	61fb      	str	r3, [r7, #28]
  HAL_GPIO_Init(GPIOC, &GPIO_InitStruct);
 8000534:	f107 0310 	add.w	r3, r7, #16
 8000538:	4619      	mov	r1, r3
 800053a:	4813      	ldr	r0, [pc, #76]	@ (8000588 <MX_GPIO_Init+0xfc>)
 800053c:	f000 faa4 	bl	8000a88 <HAL_GPIO_Init>

  /*Configure GPIO pins : CORNER_LED_0_Pin CORNER_LED_1_Pin CORNER_LED_2_Pin CORNER_LED_3_Pin
                           CORNER_LED_4_Pin CORNER_LED_5_Pin CORNER_LED_6_Pin CORNER_LED_7_Pin */
  GPIO_InitStruct.Pin = CORNER_LED_0_Pin|CORNER_LED_1_Pin|CORNER_LED_2_Pin|CORNER_LED_3_Pin
 8000540:	23ff      	movs	r3, #255	@ 0xff
 8000542:	613b      	str	r3, [r7, #16]
                          |CORNER_LED_4_Pin|CORNER_LED_5_Pin|CORNER_LED_6_Pin|CORNER_LED_7_Pin;
  GPIO_InitStruct.Mode = GPIO_MODE_OUTPUT_PP;
 8000544:	2301      	movs	r3, #1
 8000546:	617b      	str	r3, [r7, #20]
  GPIO_InitStruct.Pull = GPIO_NOPULL;
 8000548:	2300      	movs	r3, #0
 800054a:	61bb      	str	r3, [r7, #24]
  GPIO_InitStruct.Speed = GPIO_SPEED_FREQ_LOW;
 800054c:	2302      	movs	r3, #2
 800054e:	61fb      	str	r3, [r7, #28]
  HAL_GPIO_Init(GPIOA, &GPIO_InitStruct);
 8000550:	f107 0310 	add.w	r3, r7, #16
 8000554:	4619      	mov	r1, r3
 8000556:	480d      	ldr	r0, [pc, #52]	@ (800058c <MX_GPIO_Init+0x100>)
 8000558:	f000 fa96 	bl	8000a88 <HAL_GPIO_Init>

  /*Configure GPIO pins : TRANSISTOR_0_Pin TRANSISTOR_1_Pin TRANSISTOR_2_Pin TRANSISTOR_3_Pin
                           TRANSISTOR_4_Pin TRANSISTOR_5_Pin */
  GPIO_InitStruct.Pin = TRANSISTOR_0_Pin|TRANSISTOR_1_Pin|TRANSISTOR_2_Pin|TRANSISTOR_3_Pin
 800055c:	f44f 737c 	mov.w	r3, #1008	@ 0x3f0
 8000560:	613b      	str	r3, [r7, #16]
                          |TRANSISTOR_4_Pin|TRANSISTOR_5_Pin;
  GPIO_InitStruct.Mode = GPIO_MODE_OUTPUT_PP;
 8000562:	2301      	movs	r3, #1
 8000564:	617b      	str	r3, [r7, #20]
  GPIO_InitStruct.Pull = GPIO_NOPULL;
 8000566:	2300      	movs	r3, #0
 8000568:	61bb      	str	r3, [r7, #24]
  GPIO_InitStruct.Speed = GPIO_SPEED_FREQ_LOW;
 800056a:	2302      	movs	r3, #2
 800056c:	61fb      	str	r3, [r7, #28]
  HAL_GPIO_Init(GPIOB, &GPIO_InitStruct);
 800056e:	f107 0310 	add.w	r3, r7, #16
 8000572:	4619      	mov	r1, r3
 8000574:	4806      	ldr	r0, [pc, #24]	@ (8000590 <MX_GPIO_Init+0x104>)
 8000576:	f000 fa87 	bl	8000a88 <HAL_GPIO_Init>

/* USER CODE BEGIN MX_GPIO_Init_2 */
/* USER CODE END MX_GPIO_Init_2 */
}
 800057a:	bf00      	nop
 800057c:	3720      	adds	r7, #32
 800057e:	46bd      	mov	sp, r7
 8000580:	bd80      	pop	{r7, pc}
 8000582:	bf00      	nop
 8000584:	40021000 	.word	0x40021000
 8000588:	40011000 	.word	0x40011000
 800058c:	40010800 	.word	0x40010800
 8000590:	40010c00 	.word	0x40010c00

08000594 <Error_Handler>:
/**
  * @brief  This function is executed in case of error occurrence.
  * @retval None
  */
void Error_Handler(void)
{
 8000594:	b480      	push	{r7}
 8000596:	af00      	add	r7, sp, #0
  \details Disables IRQ interrupts by setting the I-bit in the CPSR.
           Can only be executed in Privileged modes.
 */
__STATIC_FORCEINLINE void __disable_irq(void)
{
  __ASM volatile ("cpsid i" : : : "memory");
 8000598:	b672      	cpsid	i
}
 800059a:	bf00      	nop
  /* USER CODE BEGIN Error_Handler_Debug */
  /* User can add his own implementation to report the HAL error return state */
  __disable_irq();
  while (1)
 800059c:	bf00      	nop
 800059e:	e7fd      	b.n	800059c <Error_Handler+0x8>

080005a0 <HAL_MspInit>:
/* USER CODE END 0 */
/**
  * Initializes the Global MSP.
  */
void HAL_MspInit(void)
{
 80005a0:	b480      	push	{r7}
 80005a2:	b085      	sub	sp, #20
 80005a4:	af00      	add	r7, sp, #0

  /* USER CODE BEGIN MspInit 0 */

  /* USER CODE END MspInit 0 */

  __HAL_RCC_AFIO_CLK_ENABLE();
 80005a6:	4b15      	ldr	r3, [pc, #84]	@ (80005fc <HAL_MspInit+0x5c>)
 80005a8:	699b      	ldr	r3, [r3, #24]
 80005aa:	4a14      	ldr	r2, [pc, #80]	@ (80005fc <HAL_MspInit+0x5c>)
 80005ac:	f043 0301 	orr.w	r3, r3, #1
 80005b0:	6193      	str	r3, [r2, #24]
 80005b2:	4b12      	ldr	r3, [pc, #72]	@ (80005fc <HAL_MspInit+0x5c>)
 80005b4:	699b      	ldr	r3, [r3, #24]
 80005b6:	f003 0301 	and.w	r3, r3, #1
 80005ba:	60bb      	str	r3, [r7, #8]
 80005bc:	68bb      	ldr	r3, [r7, #8]
  __HAL_RCC_PWR_CLK_ENABLE();
 80005be:	4b0f      	ldr	r3, [pc, #60]	@ (80005fc <HAL_MspInit+0x5c>)
 80005c0:	69db      	ldr	r3, [r3, #28]
 80005c2:	4a0e      	ldr	r2, [pc, #56]	@ (80005fc <HAL_MspInit+0x5c>)
 80005c4:	f043 5380 	orr.w	r3, r3, #268435456	@ 0x10000000
 80005c8:	61d3      	str	r3, [r2, #28]
 80005ca:	4b0c      	ldr	r3, [pc, #48]	@ (80005fc <HAL_MspInit+0x5c>)
 80005cc:	69db      	ldr	r3, [r3, #28]
 80005ce:	f003 5380 	and.w	r3, r3, #268435456	@ 0x10000000
 80005d2:	607b      	str	r3, [r7, #4]
 80005d4:	687b      	ldr	r3, [r7, #4]

  /* System interrupt init*/

  /** NOJTAG: JTAG-DP Disabled and SW-DP Enabled
  */
  __HAL_AFIO_REMAP_SWJ_NOJTAG();
 80005d6:	4b0a      	ldr	r3, [pc, #40]	@ (8000600 <HAL_MspInit+0x60>)
 80005d8:	685b      	ldr	r3, [r3, #4]
 80005da:	60fb      	str	r3, [r7, #12]
 80005dc:	68fb      	ldr	r3, [r7, #12]
 80005de:	f023 63e0 	bic.w	r3, r3, #117440512	@ 0x7000000
 80005e2:	60fb      	str	r3, [r7, #12]
 80005e4:	68fb      	ldr	r3, [r7, #12]
 80005e6:	f043 7300 	orr.w	r3, r3, #33554432	@ 0x2000000
 80005ea:	60fb      	str	r3, [r7, #12]
 80005ec:	4a04      	ldr	r2, [pc, #16]	@ (8000600 <HAL_MspInit+0x60>)
 80005ee:	68fb      	ldr	r3, [r7, #12]
 80005f0:	6053      	str	r3, [r2, #4]

  /* USER CODE BEGIN MspInit 1 */

  /* USER CODE END MspInit 1 */
}
 80005f2:	bf00      	nop
 80005f4:	3714      	adds	r7, #20
 80005f6:	46bd      	mov	sp, r7
 80005f8:	bc80      	pop	{r7}
 80005fa:	4770      	bx	lr
 80005fc:	40021000 	.word	0x40021000
 8000600:	40010000 	.word	0x40010000

08000604 <HAL_I2C_MspInit>:
* This function configures the hardware resources used in this example
* @param hi2c: I2C handle pointer
* @retval None
*/
void HAL_I2C_MspInit(I2C_HandleTypeDef* hi2c)
{
 8000604:	b580      	push	{r7, lr}
 8000606:	b088      	sub	sp, #32
 8000608:	af00      	add	r7, sp, #0
 800060a:	6078      	str	r0, [r7, #4]
  GPIO_InitTypeDef GPIO_InitStruct = {0};
 800060c:	f107 0310 	add.w	r3, r7, #16
 8000610:	2200      	movs	r2, #0
 8000612:	601a      	str	r2, [r3, #0]
 8000614:	605a      	str	r2, [r3, #4]
 8000616:	609a      	str	r2, [r3, #8]
 8000618:	60da      	str	r2, [r3, #12]
  if(hi2c->Instance==I2C2)
 800061a:	687b      	ldr	r3, [r7, #4]
 800061c:	681b      	ldr	r3, [r3, #0]
 800061e:	4a16      	ldr	r2, [pc, #88]	@ (8000678 <HAL_I2C_MspInit+0x74>)
 8000620:	4293      	cmp	r3, r2
 8000622:	d124      	bne.n	800066e <HAL_I2C_MspInit+0x6a>
  {
  /* USER CODE BEGIN I2C2_MspInit 0 */

  /* USER CODE END I2C2_MspInit 0 */

    __HAL_RCC_GPIOB_CLK_ENABLE();
 8000624:	4b15      	ldr	r3, [pc, #84]	@ (800067c <HAL_I2C_MspInit+0x78>)
 8000626:	699b      	ldr	r3, [r3, #24]
 8000628:	4a14      	ldr	r2, [pc, #80]	@ (800067c <HAL_I2C_MspInit+0x78>)
 800062a:	f043 0308 	orr.w	r3, r3, #8
 800062e:	6193      	str	r3, [r2, #24]
 8000630:	4b12      	ldr	r3, [pc, #72]	@ (800067c <HAL_I2C_MspInit+0x78>)
 8000632:	699b      	ldr	r3, [r3, #24]
 8000634:	f003 0308 	and.w	r3, r3, #8
 8000638:	60fb      	str	r3, [r7, #12]
 800063a:	68fb      	ldr	r3, [r7, #12]
    /**I2C2 GPIO Configuration
    PB10     ------> I2C2_SCL
    PB11     ------> I2C2_SDA
    */
    GPIO_InitStruct.Pin = GPIO_PIN_10|GPIO_PIN_11;
 800063c:	f44f 6340 	mov.w	r3, #3072	@ 0xc00
 8000640:	613b      	str	r3, [r7, #16]
    GPIO_InitStruct.Mode = GPIO_MODE_AF_OD;
 8000642:	2312      	movs	r3, #18
 8000644:	617b      	str	r3, [r7, #20]
    GPIO_InitStruct.Speed = GPIO_SPEED_FREQ_HIGH;
 8000646:	2303      	movs	r3, #3
 8000648:	61fb      	str	r3, [r7, #28]
    HAL_GPIO_Init(GPIOB, &GPIO_InitStruct);
 800064a:	f107 0310 	add.w	r3, r7, #16
 800064e:	4619      	mov	r1, r3
 8000650:	480b      	ldr	r0, [pc, #44]	@ (8000680 <HAL_I2C_MspInit+0x7c>)
 8000652:	f000 fa19 	bl	8000a88 <HAL_GPIO_Init>

    /* Peripheral clock enable */
    __HAL_RCC_I2C2_CLK_ENABLE();
 8000656:	4b09      	ldr	r3, [pc, #36]	@ (800067c <HAL_I2C_MspInit+0x78>)
 8000658:	69db      	ldr	r3, [r3, #28]
 800065a:	4a08      	ldr	r2, [pc, #32]	@ (800067c <HAL_I2C_MspInit+0x78>)
 800065c:	f443 0380 	orr.w	r3, r3, #4194304	@ 0x400000
 8000660:	61d3      	str	r3, [r2, #28]
 8000662:	4b06      	ldr	r3, [pc, #24]	@ (800067c <HAL_I2C_MspInit+0x78>)
 8000664:	69db      	ldr	r3, [r3, #28]
 8000666:	f403 0380 	and.w	r3, r3, #4194304	@ 0x400000
 800066a:	60bb      	str	r3, [r7, #8]
 800066c:	68bb      	ldr	r3, [r7, #8]
  /* USER CODE BEGIN I2C2_MspInit 1 */

  /* USER CODE END I2C2_MspInit 1 */
  }

}
 800066e:	bf00      	nop
 8000670:	3720      	adds	r7, #32
 8000672:	46bd      	mov	sp, r7
 8000674:	bd80      	pop	{r7, pc}
 8000676:	bf00      	nop
 8000678:	40005800 	.word	0x40005800
 800067c:	40021000 	.word	0x40021000
 8000680:	40010c00 	.word	0x40010c00

08000684 <HAL_SPI_MspInit>:
* This function configures the hardware resources used in this example
* @param hspi: SPI handle pointer
* @retval None
*/
void HAL_SPI_MspInit(SPI_HandleTypeDef* hspi)
{
 8000684:	b580      	push	{r7, lr}
 8000686:	b088      	sub	sp, #32
 8000688:	af00      	add	r7, sp, #0
 800068a:	6078      	str	r0, [r7, #4]
  GPIO_InitTypeDef GPIO_InitStruct = {0};
 800068c:	f107 0310 	add.w	r3, r7, #16
 8000690:	2200      	movs	r2, #0
 8000692:	601a      	str	r2, [r3, #0]
 8000694:	605a      	str	r2, [r3, #4]
 8000696:	609a      	str	r2, [r3, #8]
 8000698:	60da      	str	r2, [r3, #12]
  if(hspi->Instance==SPI2)
 800069a:	687b      	ldr	r3, [r7, #4]
 800069c:	681b      	ldr	r3, [r3, #0]
 800069e:	4a16      	ldr	r2, [pc, #88]	@ (80006f8 <HAL_SPI_MspInit+0x74>)
 80006a0:	4293      	cmp	r3, r2
 80006a2:	d124      	bne.n	80006ee <HAL_SPI_MspInit+0x6a>
  {
  /* USER CODE BEGIN SPI2_MspInit 0 */

  /* USER CODE END SPI2_MspInit 0 */
    /* Peripheral clock enable */
    __HAL_RCC_SPI2_CLK_ENABLE();
 80006a4:	4b15      	ldr	r3, [pc, #84]	@ (80006fc <HAL_SPI_MspInit+0x78>)
 80006a6:	69db      	ldr	r3, [r3, #28]
 80006a8:	4a14      	ldr	r2, [pc, #80]	@ (80006fc <HAL_SPI_MspInit+0x78>)
 80006aa:	f443 4380 	orr.w	r3, r3, #16384	@ 0x4000
 80006ae:	61d3      	str	r3, [r2, #28]
 80006b0:	4b12      	ldr	r3, [pc, #72]	@ (80006fc <HAL_SPI_MspInit+0x78>)
 80006b2:	69db      	ldr	r3, [r3, #28]
 80006b4:	f403 4380 	and.w	r3, r3, #16384	@ 0x4000
 80006b8:	60fb      	str	r3, [r7, #12]
 80006ba:	68fb      	ldr	r3, [r7, #12]

    __HAL_RCC_GPIOB_CLK_ENABLE();
 80006bc:	4b0f      	ldr	r3, [pc, #60]	@ (80006fc <HAL_SPI_MspInit+0x78>)
 80006be:	699b      	ldr	r3, [r3, #24]
 80006c0:	4a0e      	ldr	r2, [pc, #56]	@ (80006fc <HAL_SPI_MspInit+0x78>)
 80006c2:	f043 0308 	orr.w	r3, r3, #8
 80006c6:	6193      	str	r3, [r2, #24]
 80006c8:	4b0c      	ldr	r3, [pc, #48]	@ (80006fc <HAL_SPI_MspInit+0x78>)
 80006ca:	699b      	ldr	r3, [r3, #24]
 80006cc:	f003 0308 	and.w	r3, r3, #8
 80006d0:	60bb      	str	r3, [r7, #8]
 80006d2:	68bb      	ldr	r3, [r7, #8]
    /**SPI2 GPIO Configuration
    PB12     ------> SPI2_NSS
    PB13     ------> SPI2_SCK
    PB15     ------> SPI2_MOSI
    */
    GPIO_InitStruct.Pin = GPIO_PIN_12|GPIO_PIN_13|GPIO_PIN_15;
 80006d4:	f44f 4330 	mov.w	r3, #45056	@ 0xb000
 80006d8:	613b      	str	r3, [r7, #16]
    GPIO_InitStruct.Mode = GPIO_MODE_INPUT;
 80006da:	2300      	movs	r3, #0
 80006dc:	617b      	str	r3, [r7, #20]
    GPIO_InitStruct.Pull = GPIO_NOPULL;
 80006de:	2300      	movs	r3, #0
 80006e0:	61bb      	str	r3, [r7, #24]
    HAL_GPIO_Init(GPIOB, &GPIO_InitStruct);
 80006e2:	f107 0310 	add.w	r3, r7, #16
 80006e6:	4619      	mov	r1, r3
 80006e8:	4805      	ldr	r0, [pc, #20]	@ (8000700 <HAL_SPI_MspInit+0x7c>)
 80006ea:	f000 f9cd 	bl	8000a88 <HAL_GPIO_Init>
  /* USER CODE BEGIN SPI2_MspInit 1 */

  /* USER CODE END SPI2_MspInit 1 */
  }

}
 80006ee:	bf00      	nop
 80006f0:	3720      	adds	r7, #32
 80006f2:	46bd      	mov	sp, r7
 80006f4:	bd80      	pop	{r7, pc}
 80006f6:	bf00      	nop
 80006f8:	40003800 	.word	0x40003800
 80006fc:	40021000 	.word	0x40021000
 8000700:	40010c00 	.word	0x40010c00

08000704 <NMI_Handler>:
/******************************************************************************/
/**
  * @brief This function handles Non maskable interrupt.
  */
void NMI_Handler(void)
{
 8000704:	b480      	push	{r7}
 8000706:	af00      	add	r7, sp, #0
  /* USER CODE BEGIN NonMaskableInt_IRQn 0 */

  /* USER CODE END NonMaskableInt_IRQn 0 */
  /* USER CODE BEGIN NonMaskableInt_IRQn 1 */
   while (1)
 8000708:	bf00      	nop
 800070a:	e7fd      	b.n	8000708 <NMI_Handler+0x4>

0800070c <HardFault_Handler>:

/**
  * @brief This function handles Hard fault interrupt.
  */
void HardFault_Handler(void)
{
 800070c:	b480      	push	{r7}
 800070e:	af00      	add	r7, sp, #0
  /* USER CODE BEGIN HardFault_IRQn 0 */

  /* USER CODE END HardFault_IRQn 0 */
  while (1)
 8000710:	bf00      	nop
 8000712:	e7fd      	b.n	8000710 <HardFault_Handler+0x4>

08000714 <MemManage_Handler>:

/**
  * @brief This function handles Memory management fault.
  */
void MemManage_Handler(void)
{
 8000714:	b480      	push	{r7}
 8000716:	af00      	add	r7, sp, #0
  /* USER CODE BEGIN MemoryManagement_IRQn 0 */

  /* USER CODE END MemoryManagement_IRQn 0 */
  while (1)
 8000718:	bf00      	nop
 800071a:	e7fd      	b.n	8000718 <MemManage_Handler+0x4>

0800071c <BusFault_Handler>:

/**
  * @brief This function handles Prefetch fault, memory access fault.
  */
void BusFault_Handler(void)
{
 800071c:	b480      	push	{r7}
 800071e:	af00      	add	r7, sp, #0
  /* USER CODE BEGIN BusFault_IRQn 0 */

  /* USER CODE END BusFault_IRQn 0 */
  while (1)
 8000720:	bf00      	nop
 8000722:	e7fd      	b.n	8000720 <BusFault_Handler+0x4>

08000724 <UsageFault_Handler>:

/**
  * @brief This function handles Undefined instruction or illegal state.
  */
void UsageFault_Handler(void)
{
 8000724:	b480      	push	{r7}
 8000726:	af00      	add	r7, sp, #0
  /* USER CODE BEGIN UsageFault_IRQn 0 */

  /* USER CODE END UsageFault_IRQn 0 */
  while (1)
 8000728:	bf00      	nop
 800072a:	e7fd      	b.n	8000728 <UsageFault_Handler+0x4>

0800072c <SVC_Handler>:

/**
  * @brief This function handles System service call via SWI instruction.
  */
void SVC_Handler(void)
{
 800072c:	b480      	push	{r7}
 800072e:	af00      	add	r7, sp, #0

  /* USER CODE END SVCall_IRQn 0 */
  /* USER CODE BEGIN SVCall_IRQn 1 */

  /* USER CODE END SVCall_IRQn 1 */
}
 8000730:	bf00      	nop
 8000732:	46bd      	mov	sp, r7
 8000734:	bc80      	pop	{r7}
 8000736:	4770      	bx	lr

08000738 <DebugMon_Handler>:

/**
  * @brief This function handles Debug monitor.
  */
void DebugMon_Handler(void)
{
 8000738:	b480      	push	{r7}
 800073a:	af00      	add	r7, sp, #0

  /* USER CODE END DebugMonitor_IRQn 0 */
  /* USER CODE BEGIN DebugMonitor_IRQn 1 */

  /* USER CODE END DebugMonitor_IRQn 1 */
}
 800073c:	bf00      	nop
 800073e:	46bd      	mov	sp, r7
 8000740:	bc80      	pop	{r7}
 8000742:	4770      	bx	lr

08000744 <PendSV_Handler>:

/**
  * @brief This function handles Pendable request for system service.
  */
void PendSV_Handler(void)
{
 8000744:	b480      	push	{r7}
 8000746:	af00      	add	r7, sp, #0

  /* USER CODE END PendSV_IRQn 0 */
  /* USER CODE BEGIN PendSV_IRQn 1 */

  /* USER CODE END PendSV_IRQn 1 */
}
 8000748:	bf00      	nop
 800074a:	46bd      	mov	sp, r7
 800074c:	bc80      	pop	{r7}
 800074e:	4770      	bx	lr

08000750 <SysTick_Handler>:

/**
  * @brief This function handles System tick timer.
  */
void SysTick_Handler(void)
{
 8000750:	b580      	push	{r7, lr}
 8000752:	af00      	add	r7, sp, #0
  /* USER CODE BEGIN SysTick_IRQn 0 */

  /* USER CODE END SysTick_IRQn 0 */
  HAL_IncTick();
 8000754:	f000 f874 	bl	8000840 <HAL_IncTick>
  /* USER CODE BEGIN SysTick_IRQn 1 */

  /* USER CODE END SysTick_IRQn 1 */
}
 8000758:	bf00      	nop
 800075a:	bd80      	pop	{r7, pc}

0800075c <SystemInit>:
 800075c:	b480      	push	{r7}
 800075e:	af00      	add	r7, sp, #0
 8000760:	bf00      	nop
 8000762:	46bd      	mov	sp, r7
 8000764:	bc80      	pop	{r7}
 8000766:	4770      	bx	lr

08000768 <Reset_Handler>:
 8000768:	f7ff fff8 	bl	800075c <SystemInit>
 800076c:	480b      	ldr	r0, [pc, #44]	@ (800079c <LoopFillZerobss+0xe>)
 800076e:	490c      	ldr	r1, [pc, #48]	@ (80007a0 <LoopFillZerobss+0x12>)
 8000770:	4a0c      	ldr	r2, [pc, #48]	@ (80007a4 <LoopFillZerobss+0x16>)
 8000772:	2300      	movs	r3, #0
 8000774:	e002      	b.n	800077c <LoopCopyDataInit>

08000776 <CopyDataInit>:
 8000776:	58d4      	ldr	r4, [r2, r3]
 8000778:	50c4      	str	r4, [r0, r3]
 800077a:	3304      	adds	r3, #4

0800077c <LoopCopyDataInit>:
 800077c:	18c4      	adds	r4, r0, r3
 800077e:	428c      	cmp	r4, r1
 8000780:	d3f9      	bcc.n	8000776 <CopyDataInit>
 8000782:	4a09      	ldr	r2, [pc, #36]	@ (80007a8 <LoopFillZerobss+0x1a>)
 8000784:	4c09      	ldr	r4, [pc, #36]	@ (80007ac <LoopFillZerobss+0x1e>)
 8000786:	2300      	movs	r3, #0
 8000788:	e001      	b.n	800078e <LoopFillZerobss>

0800078a <FillZerobss>:
 800078a:	6013      	str	r3, [r2, #0]
 800078c:	3204      	adds	r2, #4

0800078e <LoopFillZerobss>:
 800078e:	42a2      	cmp	r2, r4
 8000790:	d3fb      	bcc.n	800078a <FillZerobss>
 8000792:	f001 fc39 	bl	8002008 <__libc_init_array>
 8000796:	f7ff fdbd 	bl	8000314 <main>
 800079a:	4770      	bx	lr
 800079c:	20000000 	.word	0x20000000
 80007a0:	2000000c 	.word	0x2000000c
 80007a4:	080020a8 	.word	0x080020a8
 80007a8:	2000000c 	.word	0x2000000c
 80007ac:	200000d8 	.word	0x200000d8

080007b0 <ADC1_2_IRQHandler>:
 80007b0:	e7fe      	b.n	80007b0 <ADC1_2_IRQHandler>
	...

080007b4 <HAL_Init>:
 80007b4:	b580      	push	{r7, lr}
 80007b6:	af00      	add	r7, sp, #0
 80007b8:	4b08      	ldr	r3, [pc, #32]	@ (80007dc <HAL_Init+0x28>)
 80007ba:	681b      	ldr	r3, [r3, #0]
 80007bc:	4a07      	ldr	r2, [pc, #28]	@ (80007dc <HAL_Init+0x28>)
 80007be:	f043 0310 	orr.w	r3, r3, #16
 80007c2:	6013      	str	r3, [r2, #0]
 80007c4:	2003      	movs	r0, #3
 80007c6:	f000 f92b 	bl	8000a20 <HAL_NVIC_SetPriorityGrouping>
 80007ca:	200f      	movs	r0, #15
 80007cc:	f000 f808 	bl	80007e0 <HAL_InitTick>
 80007d0:	f7ff fee6 	bl	80005a0 <HAL_MspInit>
 80007d4:	2300      	movs	r3, #0
 80007d6:	4618      	mov	r0, r3
 80007d8:	bd80      	pop	{r7, pc}
 80007da:	bf00      	nop
 80007dc:	40022000 	.word	0x40022000

080007e0 <HAL_InitTick>:
 80007e0:	b580      	push	{r7, lr}
 80007e2:	b082      	sub	sp, #8
 80007e4:	af00      	add	r7, sp, #0
 80007e6:	6078      	str	r0, [r7, #4]
 80007e8:	4b12      	ldr	r3, [pc, #72]	@ (8000834 <HAL_InitTick+0x54>)
 80007ea:	681a      	ldr	r2, [r3, #0]
 80007ec:	4b12      	ldr	r3, [pc, #72]	@ (8000838 <HAL_InitTick+0x58>)
 80007ee:	781b      	ldrb	r3, [r3, #0]
 80007f0:	4619      	mov	r1, r3
 80007f2:	f44f 737a 	mov.w	r3, #1000	@ 0x3e8
 80007f6:	fbb3 f3f1 	udiv	r3, r3, r1
 80007fa:	fbb2 f3f3 	udiv	r3, r2, r3
 80007fe:	4618      	mov	r0, r3
 8000800:	f000 f935 	bl	8000a6e <HAL_SYSTICK_Config>
 8000804:	4603      	mov	r3, r0
 8000806:	2b00      	cmp	r3, #0
 8000808:	d001      	beq.n	800080e <HAL_InitTick+0x2e>
 800080a:	2301      	movs	r3, #1
 800080c:	e00e      	b.n	800082c <HAL_InitTick+0x4c>
 800080e:	687b      	ldr	r3, [r7, #4]
 8000810:	2b0f      	cmp	r3, #15
 8000812:	d80a      	bhi.n	800082a <HAL_InitTick+0x4a>
 8000814:	2200      	movs	r2, #0
 8000816:	6879      	ldr	r1, [r7, #4]
 8000818:	f04f 30ff 	mov.w	r0, #4294967295
 800081c:	f000 f90b 	bl	8000a36 <HAL_NVIC_SetPriority>
 8000820:	4a06      	ldr	r2, [pc, #24]	@ (800083c <HAL_InitTick+0x5c>)
 8000822:	687b      	ldr	r3, [r7, #4]
 8000824:	6013      	str	r3, [r2, #0]
 8000826:	2300      	movs	r3, #0
 8000828:	e000      	b.n	800082c <HAL_InitTick+0x4c>
 800082a:	2301      	movs	r3, #1
 800082c:	4618      	mov	r0, r3
 800082e:	3708      	adds	r7, #8
 8000830:	46bd      	mov	sp, r7
 8000832:	bd80      	pop	{r7, pc}
 8000834:	20000000 	.word	0x20000000
 8000838:	20000008 	.word	0x20000008
 800083c:	20000004 	.word	0x20000004

08000840 <HAL_IncTick>:
 8000840:	b480      	push	{r7}
 8000842:	af00      	add	r7, sp, #0
 8000844:	4b05      	ldr	r3, [pc, #20]	@ (800085c <HAL_IncTick+0x1c>)
 8000846:	781b      	ldrb	r3, [r3, #0]
 8000848:	461a      	mov	r2, r3
 800084a:	4b05      	ldr	r3, [pc, #20]	@ (8000860 <HAL_IncTick+0x20>)
 800084c:	681b      	ldr	r3, [r3, #0]
 800084e:	4413      	add	r3, r2
 8000850:	4a03      	ldr	r2, [pc, #12]	@ (8000860 <HAL_IncTick+0x20>)
 8000852:	6013      	str	r3, [r2, #0]
 8000854:	bf00      	nop
 8000856:	46bd      	mov	sp, r7
 8000858:	bc80      	pop	{r7}
 800085a:	4770      	bx	lr
 800085c:	20000008 	.word	0x20000008
 8000860:	200000d4 	.word	0x200000d4

08000864 <HAL_GetTick>:
 8000864:	b480      	push	{r7}
 8000866:	af00      	add	r7, sp, #0
 8000868:	4b02      	ldr	r3, [pc, #8]	@ (8000874 <HAL_GetTick+0x10>)
 800086a:	681b      	ldr	r3, [r3, #0]
 800086c:	4618      	mov	r0, r3
 800086e:	46bd      	mov	sp, r7
 8000870:	bc80      	pop	{r7}
 8000872:	4770      	bx	lr
 8000874:	200000d4 	.word	0x200000d4

08000878 <HAL_Delay>:
 8000878:	b580      	push	{r7, lr}
 800087a:	b084      	sub	sp, #16
 800087c:	af00      	add	r7, sp, #0
 800087e:	6078      	str	r0, [r7, #4]
 8000880:	f7ff fff0 	bl	8000864 <HAL_GetTick>
 8000884:	60b8      	str	r0, [r7, #8]
 8000886:	687b      	ldr	r3, [r7, #4]
 8000888:	60fb      	str	r3, [r7, #12]
 800088a:	68fb      	ldr	r3, [r7, #12]
 800088c:	f1b3 3fff 	cmp.w	r3, #4294967295
 8000890:	d005      	beq.n	800089e <HAL_Delay+0x26>
 8000892:	4b0a      	ldr	r3, [pc, #40]	@ (80008bc <HAL_Delay+0x44>)
 8000894:	781b      	ldrb	r3, [r3, #0]
 8000896:	461a      	mov	r2, r3
 8000898:	68fb      	ldr	r3, [r7, #12]
 800089a:	4413      	add	r3, r2
 800089c:	60fb      	str	r3, [r7, #12]
 800089e:	bf00      	nop
 80008a0:	f7ff ffe0 	bl	8000864 <HAL_GetTick>
 80008a4:	4602      	mov	r2, r0
 80008a6:	68bb      	ldr	r3, [r7, #8]
 80008a8:	1ad3      	subs	r3, r2, r3
 80008aa:	68fa      	ldr	r2, [r7, #12]
 80008ac:	429a      	cmp	r2, r3
 80008ae:	d8f7      	bhi.n	80008a0 <HAL_Delay+0x28>
 80008b0:	bf00      	nop
 80008b2:	bf00      	nop
 80008b4:	3710      	adds	r7, #16
 80008b6:	46bd      	mov	sp, r7
 80008b8:	bd80      	pop	{r7, pc}
 80008ba:	bf00      	nop
 80008bc:	20000008 	.word	0x20000008

080008c0 <__NVIC_SetPriorityGrouping>:
 80008c0:	b480      	push	{r7}
 80008c2:	b085      	sub	sp, #20
 80008c4:	af00      	add	r7, sp, #0
 80008c6:	6078      	str	r0, [r7, #4]
 80008c8:	687b      	ldr	r3, [r7, #4]
 80008ca:	f003 0307 	and.w	r3, r3, #7
 80008ce:	60fb      	str	r3, [r7, #12]
 80008d0:	4b0c      	ldr	r3, [pc, #48]	@ (8000904 <__NVIC_SetPriorityGrouping+0x44>)
 80008d2:	68db      	ldr	r3, [r3, #12]
 80008d4:	60bb      	str	r3, [r7, #8]
 80008d6:	68ba      	ldr	r2, [r7, #8]
 80008d8:	f64f 03ff 	movw	r3, #63743	@ 0xf8ff
 80008dc:	4013      	ands	r3, r2
 80008de:	60bb      	str	r3, [r7, #8]
 80008e0:	68fb      	ldr	r3, [r7, #12]
 80008e2:	021a      	lsls	r2, r3, #8
 80008e4:	68bb      	ldr	r3, [r7, #8]
 80008e6:	4313      	orrs	r3, r2
 80008e8:	f043 63bf 	orr.w	r3, r3, #100139008	@ 0x5f80000
 80008ec:	f443 3300 	orr.w	r3, r3, #131072	@ 0x20000
 80008f0:	60bb      	str	r3, [r7, #8]
 80008f2:	4a04      	ldr	r2, [pc, #16]	@ (8000904 <__NVIC_SetPriorityGrouping+0x44>)
 80008f4:	68bb      	ldr	r3, [r7, #8]
 80008f6:	60d3      	str	r3, [r2, #12]
 80008f8:	bf00      	nop
 80008fa:	3714      	adds	r7, #20
 80008fc:	46bd      	mov	sp, r7
 80008fe:	bc80      	pop	{r7}
 8000900:	4770      	bx	lr
 8000902:	bf00      	nop
 8000904:	e000ed00 	.word	0xe000ed00

08000908 <__NVIC_GetPriorityGrouping>:
 8000908:	b480      	push	{r7}
 800090a:	af00      	add	r7, sp, #0
 800090c:	4b04      	ldr	r3, [pc, #16]	@ (8000920 <__NVIC_GetPriorityGrouping+0x18>)
 800090e:	68db      	ldr	r3, [r3, #12]
 8000910:	0a1b      	lsrs	r3, r3, #8
 8000912:	f003 0307 	and.w	r3, r3, #7
 8000916:	4618      	mov	r0, r3
 8000918:	46bd      	mov	sp, r7
 800091a:	bc80      	pop	{r7}
 800091c:	4770      	bx	lr
 800091e:	bf00      	nop
 8000920:	e000ed00 	.word	0xe000ed00

08000924 <__NVIC_SetPriority>:
 8000924:	b480      	push	{r7}
 8000926:	b083      	sub	sp, #12
 8000928:	af00      	add	r7, sp, #0
 800092a:	4603      	mov	r3, r0
 800092c:	6039      	str	r1, [r7, #0]
 800092e:	71fb      	strb	r3, [r7, #7]
 8000930:	f997 3007 	ldrsb.w	r3, [r7, #7]
 8000934:	2b00      	cmp	r3, #0
 8000936:	db0a      	blt.n	800094e <__NVIC_SetPriority+0x2a>
 8000938:	683b      	ldr	r3, [r7, #0]
 800093a:	b2da      	uxtb	r2, r3
 800093c:	490c      	ldr	r1, [pc, #48]	@ (8000970 <__NVIC_SetPriority+0x4c>)
 800093e:	f997 3007 	ldrsb.w	r3, [r7, #7]
 8000942:	0112      	lsls	r2, r2, #4
 8000944:	b2d2      	uxtb	r2, r2
 8000946:	440b      	add	r3, r1
 8000948:	f883 2300 	strb.w	r2, [r3, #768]	@ 0x300
 800094c:	e00a      	b.n	8000964 <__NVIC_SetPriority+0x40>
 800094e:	683b      	ldr	r3, [r7, #0]
 8000950:	b2da      	uxtb	r2, r3
 8000952:	4908      	ldr	r1, [pc, #32]	@ (8000974 <__NVIC_SetPriority+0x50>)
 8000954:	79fb      	ldrb	r3, [r7, #7]
 8000956:	f003 030f 	and.w	r3, r3, #15
 800095a:	3b04      	subs	r3, #4
 800095c:	0112      	lsls	r2, r2, #4
 800095e:	b2d2      	uxtb	r2, r2
 8000960:	440b      	add	r3, r1
 8000962:	761a      	strb	r2, [r3, #24]
 8000964:	bf00      	nop
 8000966:	370c      	adds	r7, #12
 8000968:	46bd      	mov	sp, r7
 800096a:	bc80      	pop	{r7}
 800096c:	4770      	bx	lr
 800096e:	bf00      	nop
 8000970:	e000e100 	.word	0xe000e100
 8000974:	e000ed00 	.word	0xe000ed00

08000978 <NVIC_EncodePriority>:
 8000978:	b480      	push	{r7}
 800097a:	b089      	sub	sp, #36	@ 0x24
 800097c:	af00      	add	r7, sp, #0
 800097e:	60f8      	str	r0, [r7, #12]
 8000980:	60b9      	str	r1, [r7, #8]
 8000982:	607a      	str	r2, [r7, #4]
 8000984:	68fb      	ldr	r3, [r7, #12]
 8000986:	f003 0307 	and.w	r3, r3, #7
 800098a:	61fb      	str	r3, [r7, #28]
 800098c:	69fb      	ldr	r3, [r7, #28]
 800098e:	f1c3 0307 	rsb	r3, r3, #7
 8000992:	2b04      	cmp	r3, #4
 8000994:	bf28      	it	cs
 8000996:	2304      	movcs	r3, #4
 8000998:	61bb      	str	r3, [r7, #24]
 800099a:	69fb      	ldr	r3, [r7, #28]
 800099c:	3304      	adds	r3, #4
 800099e:	2b06      	cmp	r3, #6
 80009a0:	d902      	bls.n	80009a8 <NVIC_EncodePriority+0x30>
 80009a2:	69fb      	ldr	r3, [r7, #28]
 80009a4:	3b03      	subs	r3, #3
 80009a6:	e000      	b.n	80009aa <NVIC_EncodePriority+0x32>
 80009a8:	2300      	movs	r3, #0
 80009aa:	617b      	str	r3, [r7, #20]
 80009ac:	f04f 32ff 	mov.w	r2, #4294967295
 80009b0:	69bb      	ldr	r3, [r7, #24]
 80009b2:	fa02 f303 	lsl.w	r3, r2, r3
 80009b6:	43da      	mvns	r2, r3
 80009b8:	68bb      	ldr	r3, [r7, #8]
 80009ba:	401a      	ands	r2, r3
 80009bc:	697b      	ldr	r3, [r7, #20]
 80009be:	409a      	lsls	r2, r3
 80009c0:	f04f 31ff 	mov.w	r1, #4294967295
 80009c4:	697b      	ldr	r3, [r7, #20]
 80009c6:	fa01 f303 	lsl.w	r3, r1, r3
 80009ca:	43d9      	mvns	r1, r3
 80009cc:	687b      	ldr	r3, [r7, #4]
 80009ce:	400b      	ands	r3, r1
 80009d0:	4313      	orrs	r3, r2
 80009d2:	4618      	mov	r0, r3
 80009d4:	3724      	adds	r7, #36	@ 0x24
 80009d6:	46bd      	mov	sp, r7
 80009d8:	bc80      	pop	{r7}
 80009da:	4770      	bx	lr

080009dc <SysTick_Config>:
 80009dc:	b580      	push	{r7, lr}
 80009de:	b082      	sub	sp, #8
 80009e0:	af00      	add	r7, sp, #0
 80009e2:	6078      	str	r0, [r7, #4]
 80009e4:	687b      	ldr	r3, [r7, #4]
 80009e6:	3b01      	subs	r3, #1
 80009e8:	f1b3 7f80 	cmp.w	r3, #16777216	@ 0x1000000
 80009ec:	d301      	bcc.n	80009f2 <SysTick_Config+0x16>
 80009ee:	2301      	movs	r3, #1
 80009f0:	e00f      	b.n	8000a12 <SysTick_Config+0x36>
 80009f2:	4a0a      	ldr	r2, [pc, #40]	@ (8000a1c <SysTick_Config+0x40>)
 80009f4:	687b      	ldr	r3, [r7, #4]
 80009f6:	3b01      	subs	r3, #1
 80009f8:	6053      	str	r3, [r2, #4]
 80009fa:	210f      	movs	r1, #15
 80009fc:	f04f 30ff 	mov.w	r0, #4294967295
 8000a00:	f7ff ff90 	bl	8000924 <__NVIC_SetPriority>
 8000a04:	4b05      	ldr	r3, [pc, #20]	@ (8000a1c <SysTick_Config+0x40>)
 8000a06:	2200      	movs	r2, #0
 8000a08:	609a      	str	r2, [r3, #8]
 8000a0a:	4b04      	ldr	r3, [pc, #16]	@ (8000a1c <SysTick_Config+0x40>)
 8000a0c:	2207      	movs	r2, #7
 8000a0e:	601a      	str	r2, [r3, #0]
 8000a10:	2300      	movs	r3, #0
 8000a12:	4618      	mov	r0, r3
 8000a14:	3708      	adds	r7, #8
 8000a16:	46bd      	mov	sp, r7
 8000a18:	bd80      	pop	{r7, pc}
 8000a1a:	bf00      	nop
 8000a1c:	e000e010 	.word	0xe000e010

08000a20 <HAL_NVIC_SetPriorityGrouping>:
 8000a20:	b580      	push	{r7, lr}
 8000a22:	b082      	sub	sp, #8
 8000a24:	af00      	add	r7, sp, #0
 8000a26:	6078      	str	r0, [r7, #4]
 8000a28:	6878      	ldr	r0, [r7, #4]
 8000a2a:	f7ff ff49 	bl	80008c0 <__NVIC_SetPriorityGrouping>
 8000a2e:	bf00      	nop
 8000a30:	3708      	adds	r7, #8
 8000a32:	46bd      	mov	sp, r7
 8000a34:	bd80      	pop	{r7, pc}

08000a36 <HAL_NVIC_SetPriority>:
 8000a36:	b580      	push	{r7, lr}
 8000a38:	b086      	sub	sp, #24
 8000a3a:	af00      	add	r7, sp, #0
 8000a3c:	4603      	mov	r3, r0
 8000a3e:	60b9      	str	r1, [r7, #8]
 8000a40:	607a      	str	r2, [r7, #4]
 8000a42:	73fb      	strb	r3, [r7, #15]
 8000a44:	2300      	movs	r3, #0
 8000a46:	617b      	str	r3, [r7, #20]
 8000a48:	f7ff ff5e 	bl	8000908 <__NVIC_GetPriorityGrouping>
 8000a4c:	6178      	str	r0, [r7, #20]
 8000a4e:	687a      	ldr	r2, [r7, #4]
 8000a50:	68b9      	ldr	r1, [r7, #8]
 8000a52:	6978      	ldr	r0, [r7, #20]
 8000a54:	f7ff ff90 	bl	8000978 <NVIC_EncodePriority>
 8000a58:	4602      	mov	r2, r0
 8000a5a:	f997 300f 	ldrsb.w	r3, [r7, #15]
 8000a5e:	4611      	mov	r1, r2
 8000a60:	4618      	mov	r0, r3
 8000a62:	f7ff ff5f 	bl	8000924 <__NVIC_SetPriority>
 8000a66:	bf00      	nop
 8000a68:	3718      	adds	r7, #24
 8000a6a:	46bd      	mov	sp, r7
 8000a6c:	bd80      	pop	{r7, pc}

08000a6e <HAL_SYSTICK_Config>:
 8000a6e:	b580      	push	{r7, lr}
 8000a70:	b082      	sub	sp, #8
 8000a72:	af00      	add	r7, sp, #0
 8000a74:	6078      	str	r0, [r7, #4]
 8000a76:	6878      	ldr	r0, [r7, #4]
 8000a78:	f7ff ffb0 	bl	80009dc <SysTick_Config>
 8000a7c:	4603      	mov	r3, r0
 8000a7e:	4618      	mov	r0, r3
 8000a80:	3708      	adds	r7, #8
 8000a82:	46bd      	mov	sp, r7
 8000a84:	bd80      	pop	{r7, pc}
	...

08000a88 <HAL_GPIO_Init>:
 8000a88:	b480      	push	{r7}
 8000a8a:	b08b      	sub	sp, #44	@ 0x2c
 8000a8c:	af00      	add	r7, sp, #0
 8000a8e:	6078      	str	r0, [r7, #4]
 8000a90:	6039      	str	r1, [r7, #0]
 8000a92:	2300      	movs	r3, #0
 8000a94:	627b      	str	r3, [r7, #36]	@ 0x24
 8000a96:	2300      	movs	r3, #0
 8000a98:	623b      	str	r3, [r7, #32]
 8000a9a:	e169      	b.n	8000d70 <HAL_GPIO_Init+0x2e8>
 8000a9c:	2201      	movs	r2, #1
 8000a9e:	6a7b      	ldr	r3, [r7, #36]	@ 0x24
 8000aa0:	fa02 f303 	lsl.w	r3, r2, r3
 8000aa4:	61fb      	str	r3, [r7, #28]
 8000aa6:	683b      	ldr	r3, [r7, #0]
 8000aa8:	681b      	ldr	r3, [r3, #0]
 8000aaa:	69fa      	ldr	r2, [r7, #28]
 8000aac:	4013      	ands	r3, r2
 8000aae:	61bb      	str	r3, [r7, #24]
 8000ab0:	69ba      	ldr	r2, [r7, #24]
 8000ab2:	69fb      	ldr	r3, [r7, #28]
 8000ab4:	429a      	cmp	r2, r3
 8000ab6:	f040 8158 	bne.w	8000d6a <HAL_GPIO_Init+0x2e2>
 8000aba:	683b      	ldr	r3, [r7, #0]
 8000abc:	685b      	ldr	r3, [r3, #4]
 8000abe:	4a9a      	ldr	r2, [pc, #616]	@ (8000d28 <HAL_GPIO_Init+0x2a0>)
 8000ac0:	4293      	cmp	r3, r2
 8000ac2:	d05e      	beq.n	8000b82 <HAL_GPIO_Init+0xfa>
 8000ac4:	4a98      	ldr	r2, [pc, #608]	@ (8000d28 <HAL_GPIO_Init+0x2a0>)
 8000ac6:	4293      	cmp	r3, r2
 8000ac8:	d875      	bhi.n	8000bb6 <HAL_GPIO_Init+0x12e>
 8000aca:	4a98      	ldr	r2, [pc, #608]	@ (8000d2c <HAL_GPIO_Init+0x2a4>)
 8000acc:	4293      	cmp	r3, r2
 8000ace:	d058      	beq.n	8000b82 <HAL_GPIO_Init+0xfa>
 8000ad0:	4a96      	ldr	r2, [pc, #600]	@ (8000d2c <HAL_GPIO_Init+0x2a4>)
 8000ad2:	4293      	cmp	r3, r2
 8000ad4:	d86f      	bhi.n	8000bb6 <HAL_GPIO_Init+0x12e>
 8000ad6:	4a96      	ldr	r2, [pc, #600]	@ (8000d30 <HAL_GPIO_Init+0x2a8>)
 8000ad8:	4293      	cmp	r3, r2
 8000ada:	d052      	beq.n	8000b82 <HAL_GPIO_Init+0xfa>
 8000adc:	4a94      	ldr	r2, [pc, #592]	@ (8000d30 <HAL_GPIO_Init+0x2a8>)
 8000ade:	4293      	cmp	r3, r2
 8000ae0:	d869      	bhi.n	8000bb6 <HAL_GPIO_Init+0x12e>
 8000ae2:	4a94      	ldr	r2, [pc, #592]	@ (8000d34 <HAL_GPIO_Init+0x2ac>)
 8000ae4:	4293      	cmp	r3, r2
 8000ae6:	d04c      	beq.n	8000b82 <HAL_GPIO_Init+0xfa>
 8000ae8:	4a92      	ldr	r2, [pc, #584]	@ (8000d34 <HAL_GPIO_Init+0x2ac>)
 8000aea:	4293      	cmp	r3, r2
 8000aec:	d863      	bhi.n	8000bb6 <HAL_GPIO_Init+0x12e>
 8000aee:	4a92      	ldr	r2, [pc, #584]	@ (8000d38 <HAL_GPIO_Init+0x2b0>)
 8000af0:	4293      	cmp	r3, r2
 8000af2:	d046      	beq.n	8000b82 <HAL_GPIO_Init+0xfa>
 8000af4:	4a90      	ldr	r2, [pc, #576]	@ (8000d38 <HAL_GPIO_Init+0x2b0>)
 8000af6:	4293      	cmp	r3, r2
 8000af8:	d85d      	bhi.n	8000bb6 <HAL_GPIO_Init+0x12e>
 8000afa:	2b12      	cmp	r3, #18
 8000afc:	d82a      	bhi.n	8000b54 <HAL_GPIO_Init+0xcc>
 8000afe:	2b12      	cmp	r3, #18
 8000b00:	d859      	bhi.n	8000bb6 <HAL_GPIO_Init+0x12e>
 8000b02:	a201      	add	r2, pc, #4	@ (adr r2, 8000b08 <HAL_GPIO_Init+0x80>)
 8000b04:	f852 f023 	ldr.w	pc, [r2, r3, lsl #2]
 8000b08:	08000b83 	.word	0x08000b83
 8000b0c:	08000b5d 	.word	0x08000b5d
 8000b10:	08000b6f 	.word	0x08000b6f
 8000b14:	08000bb1 	.word	0x08000bb1
 8000b18:	08000bb7 	.word	0x08000bb7
 8000b1c:	08000bb7 	.word	0x08000bb7
 8000b20:	08000bb7 	.word	0x08000bb7
 8000b24:	08000bb7 	.word	0x08000bb7
 8000b28:	08000bb7 	.word	0x08000bb7
 8000b2c:	08000bb7 	.word	0x08000bb7
 8000b30:	08000bb7 	.word	0x08000bb7
 8000b34:	08000bb7 	.word	0x08000bb7
 8000b38:	08000bb7 	.word	0x08000bb7
 8000b3c:	08000bb7 	.word	0x08000bb7
 8000b40:	08000bb7 	.word	0x08000bb7
 8000b44:	08000bb7 	.word	0x08000bb7
 8000b48:	08000bb7 	.word	0x08000bb7
 8000b4c:	08000b65 	.word	0x08000b65
 8000b50:	08000b79 	.word	0x08000b79
 8000b54:	4a79      	ldr	r2, [pc, #484]	@ (8000d3c <HAL_GPIO_Init+0x2b4>)
 8000b56:	4293      	cmp	r3, r2
 8000b58:	d013      	beq.n	8000b82 <HAL_GPIO_Init+0xfa>
 8000b5a:	e02c      	b.n	8000bb6 <HAL_GPIO_Init+0x12e>
 8000b5c:	683b      	ldr	r3, [r7, #0]
 8000b5e:	68db      	ldr	r3, [r3, #12]
 8000b60:	623b      	str	r3, [r7, #32]
 8000b62:	e029      	b.n	8000bb8 <HAL_GPIO_Init+0x130>
 8000b64:	683b      	ldr	r3, [r7, #0]
 8000b66:	68db      	ldr	r3, [r3, #12]
 8000b68:	3304      	adds	r3, #4
 8000b6a:	623b      	str	r3, [r7, #32]
 8000b6c:	e024      	b.n	8000bb8 <HAL_GPIO_Init+0x130>
 8000b6e:	683b      	ldr	r3, [r7, #0]
 8000b70:	68db      	ldr	r3, [r3, #12]
 8000b72:	3308      	adds	r3, #8
 8000b74:	623b      	str	r3, [r7, #32]
 8000b76:	e01f      	b.n	8000bb8 <HAL_GPIO_Init+0x130>
 8000b78:	683b      	ldr	r3, [r7, #0]
 8000b7a:	68db      	ldr	r3, [r3, #12]
 8000b7c:	330c      	adds	r3, #12
 8000b7e:	623b      	str	r3, [r7, #32]
 8000b80:	e01a      	b.n	8000bb8 <HAL_GPIO_Init+0x130>
 8000b82:	683b      	ldr	r3, [r7, #0]
 8000b84:	689b      	ldr	r3, [r3, #8]
 8000b86:	2b00      	cmp	r3, #0
 8000b88:	d102      	bne.n	8000b90 <HAL_GPIO_Init+0x108>
 8000b8a:	2304      	movs	r3, #4
 8000b8c:	623b      	str	r3, [r7, #32]
 8000b8e:	e013      	b.n	8000bb8 <HAL_GPIO_Init+0x130>
 8000b90:	683b      	ldr	r3, [r7, #0]
 8000b92:	689b      	ldr	r3, [r3, #8]
 8000b94:	2b01      	cmp	r3, #1
 8000b96:	d105      	bne.n	8000ba4 <HAL_GPIO_Init+0x11c>
 8000b98:	2308      	movs	r3, #8
 8000b9a:	623b      	str	r3, [r7, #32]
 8000b9c:	687b      	ldr	r3, [r7, #4]
 8000b9e:	69fa      	ldr	r2, [r7, #28]
 8000ba0:	611a      	str	r2, [r3, #16]
 8000ba2:	e009      	b.n	8000bb8 <HAL_GPIO_Init+0x130>
 8000ba4:	2308      	movs	r3, #8
 8000ba6:	623b      	str	r3, [r7, #32]
 8000ba8:	687b      	ldr	r3, [r7, #4]
 8000baa:	69fa      	ldr	r2, [r7, #28]
 8000bac:	615a      	str	r2, [r3, #20]
 8000bae:	e003      	b.n	8000bb8 <HAL_GPIO_Init+0x130>
 8000bb0:	2300      	movs	r3, #0
 8000bb2:	623b      	str	r3, [r7, #32]
 8000bb4:	e000      	b.n	8000bb8 <HAL_GPIO_Init+0x130>
 8000bb6:	bf00      	nop
 8000bb8:	69bb      	ldr	r3, [r7, #24]
 8000bba:	2bff      	cmp	r3, #255	@ 0xff
 8000bbc:	d801      	bhi.n	8000bc2 <HAL_GPIO_Init+0x13a>
 8000bbe:	687b      	ldr	r3, [r7, #4]
 8000bc0:	e001      	b.n	8000bc6 <HAL_GPIO_Init+0x13e>
 8000bc2:	687b      	ldr	r3, [r7, #4]
 8000bc4:	3304      	adds	r3, #4
 8000bc6:	617b      	str	r3, [r7, #20]
 8000bc8:	69bb      	ldr	r3, [r7, #24]
 8000bca:	2bff      	cmp	r3, #255	@ 0xff
 8000bcc:	d802      	bhi.n	8000bd4 <HAL_GPIO_Init+0x14c>
 8000bce:	6a7b      	ldr	r3, [r7, #36]	@ 0x24
 8000bd0:	009b      	lsls	r3, r3, #2
 8000bd2:	e002      	b.n	8000bda <HAL_GPIO_Init+0x152>
 8000bd4:	6a7b      	ldr	r3, [r7, #36]	@ 0x24
 8000bd6:	3b08      	subs	r3, #8
 8000bd8:	009b      	lsls	r3, r3, #2
 8000bda:	613b      	str	r3, [r7, #16]
 8000bdc:	697b      	ldr	r3, [r7, #20]
 8000bde:	681a      	ldr	r2, [r3, #0]
 8000be0:	210f      	movs	r1, #15
 8000be2:	693b      	ldr	r3, [r7, #16]
 8000be4:	fa01 f303 	lsl.w	r3, r1, r3
 8000be8:	43db      	mvns	r3, r3
 8000bea:	401a      	ands	r2, r3
 8000bec:	6a39      	ldr	r1, [r7, #32]
 8000bee:	693b      	ldr	r3, [r7, #16]
 8000bf0:	fa01 f303 	lsl.w	r3, r1, r3
 8000bf4:	431a      	orrs	r2, r3
 8000bf6:	697b      	ldr	r3, [r7, #20]
 8000bf8:	601a      	str	r2, [r3, #0]
 8000bfa:	683b      	ldr	r3, [r7, #0]
 8000bfc:	685b      	ldr	r3, [r3, #4]
 8000bfe:	f003 5380 	and.w	r3, r3, #268435456	@ 0x10000000
 8000c02:	2b00      	cmp	r3, #0
 8000c04:	f000 80b1 	beq.w	8000d6a <HAL_GPIO_Init+0x2e2>
 8000c08:	4b4d      	ldr	r3, [pc, #308]	@ (8000d40 <HAL_GPIO_Init+0x2b8>)
 8000c0a:	699b      	ldr	r3, [r3, #24]
 8000c0c:	4a4c      	ldr	r2, [pc, #304]	@ (8000d40 <HAL_GPIO_Init+0x2b8>)
 8000c0e:	f043 0301 	orr.w	r3, r3, #1
 8000c12:	6193      	str	r3, [r2, #24]
 8000c14:	4b4a      	ldr	r3, [pc, #296]	@ (8000d40 <HAL_GPIO_Init+0x2b8>)
 8000c16:	699b      	ldr	r3, [r3, #24]
 8000c18:	f003 0301 	and.w	r3, r3, #1
 8000c1c:	60bb      	str	r3, [r7, #8]
 8000c1e:	68bb      	ldr	r3, [r7, #8]
 8000c20:	4a48      	ldr	r2, [pc, #288]	@ (8000d44 <HAL_GPIO_Init+0x2bc>)
 8000c22:	6a7b      	ldr	r3, [r7, #36]	@ 0x24
 8000c24:	089b      	lsrs	r3, r3, #2
 8000c26:	3302      	adds	r3, #2
 8000c28:	f852 3023 	ldr.w	r3, [r2, r3, lsl #2]
 8000c2c:	60fb      	str	r3, [r7, #12]
 8000c2e:	6a7b      	ldr	r3, [r7, #36]	@ 0x24
 8000c30:	f003 0303 	and.w	r3, r3, #3
 8000c34:	009b      	lsls	r3, r3, #2
 8000c36:	220f      	movs	r2, #15
 8000c38:	fa02 f303 	lsl.w	r3, r2, r3
 8000c3c:	43db      	mvns	r3, r3
 8000c3e:	68fa      	ldr	r2, [r7, #12]
 8000c40:	4013      	ands	r3, r2
 8000c42:	60fb      	str	r3, [r7, #12]
 8000c44:	687b      	ldr	r3, [r7, #4]
 8000c46:	4a40      	ldr	r2, [pc, #256]	@ (8000d48 <HAL_GPIO_Init+0x2c0>)
 8000c48:	4293      	cmp	r3, r2
 8000c4a:	d013      	beq.n	8000c74 <HAL_GPIO_Init+0x1ec>
 8000c4c:	687b      	ldr	r3, [r7, #4]
 8000c4e:	4a3f      	ldr	r2, [pc, #252]	@ (8000d4c <HAL_GPIO_Init+0x2c4>)
 8000c50:	4293      	cmp	r3, r2
 8000c52:	d00d      	beq.n	8000c70 <HAL_GPIO_Init+0x1e8>
 8000c54:	687b      	ldr	r3, [r7, #4]
 8000c56:	4a3e      	ldr	r2, [pc, #248]	@ (8000d50 <HAL_GPIO_Init+0x2c8>)
 8000c58:	4293      	cmp	r3, r2
 8000c5a:	d007      	beq.n	8000c6c <HAL_GPIO_Init+0x1e4>
 8000c5c:	687b      	ldr	r3, [r7, #4]
 8000c5e:	4a3d      	ldr	r2, [pc, #244]	@ (8000d54 <HAL_GPIO_Init+0x2cc>)
 8000c60:	4293      	cmp	r3, r2
 8000c62:	d101      	bne.n	8000c68 <HAL_GPIO_Init+0x1e0>
 8000c64:	2303      	movs	r3, #3
 8000c66:	e006      	b.n	8000c76 <HAL_GPIO_Init+0x1ee>
 8000c68:	2304      	movs	r3, #4
 8000c6a:	e004      	b.n	8000c76 <HAL_GPIO_Init+0x1ee>
 8000c6c:	2302      	movs	r3, #2
 8000c6e:	e002      	b.n	8000c76 <HAL_GPIO_Init+0x1ee>
 8000c70:	2301      	movs	r3, #1
 8000c72:	e000      	b.n	8000c76 <HAL_GPIO_Init+0x1ee>
 8000c74:	2300      	movs	r3, #0
 8000c76:	6a7a      	ldr	r2, [r7, #36]	@ 0x24
 8000c78:	f002 0203 	and.w	r2, r2, #3
 8000c7c:	0092      	lsls	r2, r2, #2
 8000c7e:	4093      	lsls	r3, r2
 8000c80:	68fa      	ldr	r2, [r7, #12]
 8000c82:	4313      	orrs	r3, r2
 8000c84:	60fb      	str	r3, [r7, #12]
 8000c86:	492f      	ldr	r1, [pc, #188]	@ (8000d44 <HAL_GPIO_Init+0x2bc>)
 8000c88:	6a7b      	ldr	r3, [r7, #36]	@ 0x24
 8000c8a:	089b      	lsrs	r3, r3, #2
 8000c8c:	3302      	adds	r3, #2
 8000c8e:	68fa      	ldr	r2, [r7, #12]
 8000c90:	f841 2023 	str.w	r2, [r1, r3, lsl #2]
 8000c94:	683b      	ldr	r3, [r7, #0]
 8000c96:	685b      	ldr	r3, [r3, #4]
 8000c98:	f403 1380 	and.w	r3, r3, #1048576	@ 0x100000
 8000c9c:	2b00      	cmp	r3, #0
 8000c9e:	d006      	beq.n	8000cae <HAL_GPIO_Init+0x226>
 8000ca0:	4b2d      	ldr	r3, [pc, #180]	@ (8000d58 <HAL_GPIO_Init+0x2d0>)
 8000ca2:	689a      	ldr	r2, [r3, #8]
 8000ca4:	492c      	ldr	r1, [pc, #176]	@ (8000d58 <HAL_GPIO_Init+0x2d0>)
 8000ca6:	69bb      	ldr	r3, [r7, #24]
 8000ca8:	4313      	orrs	r3, r2
 8000caa:	608b      	str	r3, [r1, #8]
 8000cac:	e006      	b.n	8000cbc <HAL_GPIO_Init+0x234>
 8000cae:	4b2a      	ldr	r3, [pc, #168]	@ (8000d58 <HAL_GPIO_Init+0x2d0>)
 8000cb0:	689a      	ldr	r2, [r3, #8]
 8000cb2:	69bb      	ldr	r3, [r7, #24]
 8000cb4:	43db      	mvns	r3, r3
 8000cb6:	4928      	ldr	r1, [pc, #160]	@ (8000d58 <HAL_GPIO_Init+0x2d0>)
 8000cb8:	4013      	ands	r3, r2
 8000cba:	608b      	str	r3, [r1, #8]
 8000cbc:	683b      	ldr	r3, [r7, #0]
 8000cbe:	685b      	ldr	r3, [r3, #4]
 8000cc0:	f403 1300 	and.w	r3, r3, #2097152	@ 0x200000
 8000cc4:	2b00      	cmp	r3, #0
 8000cc6:	d006      	beq.n	8000cd6 <HAL_GPIO_Init+0x24e>
 8000cc8:	4b23      	ldr	r3, [pc, #140]	@ (8000d58 <HAL_GPIO_Init+0x2d0>)
 8000cca:	68da      	ldr	r2, [r3, #12]
 8000ccc:	4922      	ldr	r1, [pc, #136]	@ (8000d58 <HAL_GPIO_Init+0x2d0>)
 8000cce:	69bb      	ldr	r3, [r7, #24]
 8000cd0:	4313      	orrs	r3, r2
 8000cd2:	60cb      	str	r3, [r1, #12]
 8000cd4:	e006      	b.n	8000ce4 <HAL_GPIO_Init+0x25c>
 8000cd6:	4b20      	ldr	r3, [pc, #128]	@ (8000d58 <HAL_GPIO_Init+0x2d0>)
 8000cd8:	68da      	ldr	r2, [r3, #12]
 8000cda:	69bb      	ldr	r3, [r7, #24]
 8000cdc:	43db      	mvns	r3, r3
 8000cde:	491e      	ldr	r1, [pc, #120]	@ (8000d58 <HAL_GPIO_Init+0x2d0>)
 8000ce0:	4013      	ands	r3, r2
 8000ce2:	60cb      	str	r3, [r1, #12]
 8000ce4:	683b      	ldr	r3, [r7, #0]
 8000ce6:	685b      	ldr	r3, [r3, #4]
 8000ce8:	f403 3300 	and.w	r3, r3, #131072	@ 0x20000
 8000cec:	2b00      	cmp	r3, #0
 8000cee:	d006      	beq.n	8000cfe <HAL_GPIO_Init+0x276>
 8000cf0:	4b19      	ldr	r3, [pc, #100]	@ (8000d58 <HAL_GPIO_Init+0x2d0>)
 8000cf2:	685a      	ldr	r2, [r3, #4]
 8000cf4:	4918      	ldr	r1, [pc, #96]	@ (8000d58 <HAL_GPIO_Init+0x2d0>)
 8000cf6:	69bb      	ldr	r3, [r7, #24]
 8000cf8:	4313      	orrs	r3, r2
 8000cfa:	604b      	str	r3, [r1, #4]
 8000cfc:	e006      	b.n	8000d0c <HAL_GPIO_Init+0x284>
 8000cfe:	4b16      	ldr	r3, [pc, #88]	@ (8000d58 <HAL_GPIO_Init+0x2d0>)
 8000d00:	685a      	ldr	r2, [r3, #4]
 8000d02:	69bb      	ldr	r3, [r7, #24]
 8000d04:	43db      	mvns	r3, r3
 8000d06:	4914      	ldr	r1, [pc, #80]	@ (8000d58 <HAL_GPIO_Init+0x2d0>)
 8000d08:	4013      	ands	r3, r2
 8000d0a:	604b      	str	r3, [r1, #4]
 8000d0c:	683b      	ldr	r3, [r7, #0]
 8000d0e:	685b      	ldr	r3, [r3, #4]
 8000d10:	f403 3380 	and.w	r3, r3, #65536	@ 0x10000
 8000d14:	2b00      	cmp	r3, #0
 8000d16:	d021      	beq.n	8000d5c <HAL_GPIO_Init+0x2d4>
 8000d18:	4b0f      	ldr	r3, [pc, #60]	@ (8000d58 <HAL_GPIO_Init+0x2d0>)
 8000d1a:	681a      	ldr	r2, [r3, #0]
 8000d1c:	490e      	ldr	r1, [pc, #56]	@ (8000d58 <HAL_GPIO_Init+0x2d0>)
 8000d1e:	69bb      	ldr	r3, [r7, #24]
 8000d20:	4313      	orrs	r3, r2
 8000d22:	600b      	str	r3, [r1, #0]
 8000d24:	e021      	b.n	8000d6a <HAL_GPIO_Init+0x2e2>
 8000d26:	bf00      	nop
 8000d28:	10320000 	.word	0x10320000
 8000d2c:	10310000 	.word	0x10310000
 8000d30:	10220000 	.word	0x10220000
 8000d34:	10210000 	.word	0x10210000
 8000d38:	10120000 	.word	0x10120000
 8000d3c:	10110000 	.word	0x10110000
 8000d40:	40021000 	.word	0x40021000
 8000d44:	40010000 	.word	0x40010000
 8000d48:	40010800 	.word	0x40010800
 8000d4c:	40010c00 	.word	0x40010c00
 8000d50:	40011000 	.word	0x40011000
 8000d54:	40011400 	.word	0x40011400
 8000d58:	40010400 	.word	0x40010400
 8000d5c:	4b0b      	ldr	r3, [pc, #44]	@ (8000d8c <HAL_GPIO_Init+0x304>)
 8000d5e:	681a      	ldr	r2, [r3, #0]
 8000d60:	69bb      	ldr	r3, [r7, #24]
 8000d62:	43db      	mvns	r3, r3
 8000d64:	4909      	ldr	r1, [pc, #36]	@ (8000d8c <HAL_GPIO_Init+0x304>)
 8000d66:	4013      	ands	r3, r2
 8000d68:	600b      	str	r3, [r1, #0]
 8000d6a:	6a7b      	ldr	r3, [r7, #36]	@ 0x24
 8000d6c:	3301      	adds	r3, #1
 8000d6e:	627b      	str	r3, [r7, #36]	@ 0x24
 8000d70:	683b      	ldr	r3, [r7, #0]
 8000d72:	681a      	ldr	r2, [r3, #0]
 8000d74:	6a7b      	ldr	r3, [r7, #36]	@ 0x24
 8000d76:	fa22 f303 	lsr.w	r3, r2, r3
 8000d7a:	2b00      	cmp	r3, #0
 8000d7c:	f47f ae8e 	bne.w	8000a9c <HAL_GPIO_Init+0x14>
 8000d80:	bf00      	nop
 8000d82:	bf00      	nop
 8000d84:	372c      	adds	r7, #44	@ 0x2c
 8000d86:	46bd      	mov	sp, r7
 8000d88:	bc80      	pop	{r7}
 8000d8a:	4770      	bx	lr
 8000d8c:	40010400 	.word	0x40010400

08000d90 <HAL_GPIO_WritePin>:
 8000d90:	b480      	push	{r7}
 8000d92:	b083      	sub	sp, #12
 8000d94:	af00      	add	r7, sp, #0
 8000d96:	6078      	str	r0, [r7, #4]
 8000d98:	460b      	mov	r3, r1
 8000d9a:	807b      	strh	r3, [r7, #2]
 8000d9c:	4613      	mov	r3, r2
 8000d9e:	707b      	strb	r3, [r7, #1]
 8000da0:	787b      	ldrb	r3, [r7, #1]
 8000da2:	2b00      	cmp	r3, #0
 8000da4:	d003      	beq.n	8000dae <HAL_GPIO_WritePin+0x1e>
 8000da6:	887a      	ldrh	r2, [r7, #2]
 8000da8:	687b      	ldr	r3, [r7, #4]
 8000daa:	611a      	str	r2, [r3, #16]
 8000dac:	e003      	b.n	8000db6 <HAL_GPIO_WritePin+0x26>
 8000dae:	887b      	ldrh	r3, [r7, #2]
 8000db0:	041a      	lsls	r2, r3, #16
 8000db2:	687b      	ldr	r3, [r7, #4]
 8000db4:	611a      	str	r2, [r3, #16]
 8000db6:	bf00      	nop
 8000db8:	370c      	adds	r7, #12
 8000dba:	46bd      	mov	sp, r7
 8000dbc:	bc80      	pop	{r7}
 8000dbe:	4770      	bx	lr

08000dc0 <HAL_I2C_Init>:
 8000dc0:	b580      	push	{r7, lr}
 8000dc2:	b084      	sub	sp, #16
 8000dc4:	af00      	add	r7, sp, #0
 8000dc6:	6078      	str	r0, [r7, #4]
 8000dc8:	687b      	ldr	r3, [r7, #4]
 8000dca:	2b00      	cmp	r3, #0
 8000dcc:	d101      	bne.n	8000dd2 <HAL_I2C_Init+0x12>
 8000dce:	2301      	movs	r3, #1
 8000dd0:	e12b      	b.n	800102a <HAL_I2C_Init+0x26a>
 8000dd2:	687b      	ldr	r3, [r7, #4]
 8000dd4:	f893 303d 	ldrb.w	r3, [r3, #61]	@ 0x3d
 8000dd8:	b2db      	uxtb	r3, r3
 8000dda:	2b00      	cmp	r3, #0
 8000ddc:	d106      	bne.n	8000dec <HAL_I2C_Init+0x2c>
 8000dde:	687b      	ldr	r3, [r7, #4]
 8000de0:	2200      	movs	r2, #0
 8000de2:	f883 203c 	strb.w	r2, [r3, #60]	@ 0x3c
 8000de6:	6878      	ldr	r0, [r7, #4]
 8000de8:	f7ff fc0c 	bl	8000604 <HAL_I2C_MspInit>
 8000dec:	687b      	ldr	r3, [r7, #4]
 8000dee:	2224      	movs	r2, #36	@ 0x24
 8000df0:	f883 203d 	strb.w	r2, [r3, #61]	@ 0x3d
 8000df4:	687b      	ldr	r3, [r7, #4]
 8000df6:	681b      	ldr	r3, [r3, #0]
 8000df8:	681a      	ldr	r2, [r3, #0]
 8000dfa:	687b      	ldr	r3, [r7, #4]
 8000dfc:	681b      	ldr	r3, [r3, #0]
 8000dfe:	f022 0201 	bic.w	r2, r2, #1
 8000e02:	601a      	str	r2, [r3, #0]
 8000e04:	687b      	ldr	r3, [r7, #4]
 8000e06:	681b      	ldr	r3, [r3, #0]
 8000e08:	681a      	ldr	r2, [r3, #0]
 8000e0a:	687b      	ldr	r3, [r7, #4]
 8000e0c:	681b      	ldr	r3, [r3, #0]
 8000e0e:	f442 4200 	orr.w	r2, r2, #32768	@ 0x8000
 8000e12:	601a      	str	r2, [r3, #0]
 8000e14:	687b      	ldr	r3, [r7, #4]
 8000e16:	681b      	ldr	r3, [r3, #0]
 8000e18:	681a      	ldr	r2, [r3, #0]
 8000e1a:	687b      	ldr	r3, [r7, #4]
 8000e1c:	681b      	ldr	r3, [r3, #0]
 8000e1e:	f422 4200 	bic.w	r2, r2, #32768	@ 0x8000
 8000e22:	601a      	str	r2, [r3, #0]
 8000e24:	f001 f832 	bl	8001e8c <HAL_RCC_GetPCLK1Freq>
 8000e28:	60f8      	str	r0, [r7, #12]
 8000e2a:	687b      	ldr	r3, [r7, #4]
 8000e2c:	685b      	ldr	r3, [r3, #4]
 8000e2e:	4a81      	ldr	r2, [pc, #516]	@ (8001034 <HAL_I2C_Init+0x274>)
 8000e30:	4293      	cmp	r3, r2
 8000e32:	d807      	bhi.n	8000e44 <HAL_I2C_Init+0x84>
 8000e34:	68fb      	ldr	r3, [r7, #12]
 8000e36:	4a80      	ldr	r2, [pc, #512]	@ (8001038 <HAL_I2C_Init+0x278>)
 8000e38:	4293      	cmp	r3, r2
 8000e3a:	bf94      	ite	ls
 8000e3c:	2301      	movls	r3, #1
 8000e3e:	2300      	movhi	r3, #0
 8000e40:	b2db      	uxtb	r3, r3
 8000e42:	e006      	b.n	8000e52 <HAL_I2C_Init+0x92>
 8000e44:	68fb      	ldr	r3, [r7, #12]
 8000e46:	4a7d      	ldr	r2, [pc, #500]	@ (800103c <HAL_I2C_Init+0x27c>)
 8000e48:	4293      	cmp	r3, r2
 8000e4a:	bf94      	ite	ls
 8000e4c:	2301      	movls	r3, #1
 8000e4e:	2300      	movhi	r3, #0
 8000e50:	b2db      	uxtb	r3, r3
 8000e52:	2b00      	cmp	r3, #0
 8000e54:	d001      	beq.n	8000e5a <HAL_I2C_Init+0x9a>
 8000e56:	2301      	movs	r3, #1
 8000e58:	e0e7      	b.n	800102a <HAL_I2C_Init+0x26a>
 8000e5a:	68fb      	ldr	r3, [r7, #12]
 8000e5c:	4a78      	ldr	r2, [pc, #480]	@ (8001040 <HAL_I2C_Init+0x280>)
 8000e5e:	fba2 2303 	umull	r2, r3, r2, r3
 8000e62:	0c9b      	lsrs	r3, r3, #18
 8000e64:	60bb      	str	r3, [r7, #8]
 8000e66:	687b      	ldr	r3, [r7, #4]
 8000e68:	681b      	ldr	r3, [r3, #0]
 8000e6a:	685b      	ldr	r3, [r3, #4]
 8000e6c:	f023 013f 	bic.w	r1, r3, #63	@ 0x3f
 8000e70:	687b      	ldr	r3, [r7, #4]
 8000e72:	681b      	ldr	r3, [r3, #0]
 8000e74:	68ba      	ldr	r2, [r7, #8]
 8000e76:	430a      	orrs	r2, r1
 8000e78:	605a      	str	r2, [r3, #4]
 8000e7a:	687b      	ldr	r3, [r7, #4]
 8000e7c:	681b      	ldr	r3, [r3, #0]
 8000e7e:	6a1b      	ldr	r3, [r3, #32]
 8000e80:	f023 013f 	bic.w	r1, r3, #63	@ 0x3f
 8000e84:	687b      	ldr	r3, [r7, #4]
 8000e86:	685b      	ldr	r3, [r3, #4]
 8000e88:	4a6a      	ldr	r2, [pc, #424]	@ (8001034 <HAL_I2C_Init+0x274>)
 8000e8a:	4293      	cmp	r3, r2
 8000e8c:	d802      	bhi.n	8000e94 <HAL_I2C_Init+0xd4>
 8000e8e:	68bb      	ldr	r3, [r7, #8]
 8000e90:	3301      	adds	r3, #1
 8000e92:	e009      	b.n	8000ea8 <HAL_I2C_Init+0xe8>
 8000e94:	68bb      	ldr	r3, [r7, #8]
 8000e96:	f44f 7296 	mov.w	r2, #300	@ 0x12c
 8000e9a:	fb02 f303 	mul.w	r3, r2, r3
 8000e9e:	4a69      	ldr	r2, [pc, #420]	@ (8001044 <HAL_I2C_Init+0x284>)
 8000ea0:	fba2 2303 	umull	r2, r3, r2, r3
 8000ea4:	099b      	lsrs	r3, r3, #6
 8000ea6:	3301      	adds	r3, #1
 8000ea8:	687a      	ldr	r2, [r7, #4]
 8000eaa:	6812      	ldr	r2, [r2, #0]
 8000eac:	430b      	orrs	r3, r1
 8000eae:	6213      	str	r3, [r2, #32]
 8000eb0:	687b      	ldr	r3, [r7, #4]
 8000eb2:	681b      	ldr	r3, [r3, #0]
 8000eb4:	69db      	ldr	r3, [r3, #28]
 8000eb6:	f423 424f 	bic.w	r2, r3, #52992	@ 0xcf00
 8000eba:	f022 02ff 	bic.w	r2, r2, #255	@ 0xff
 8000ebe:	687b      	ldr	r3, [r7, #4]
 8000ec0:	685b      	ldr	r3, [r3, #4]
 8000ec2:	495c      	ldr	r1, [pc, #368]	@ (8001034 <HAL_I2C_Init+0x274>)
 8000ec4:	428b      	cmp	r3, r1
 8000ec6:	d819      	bhi.n	8000efc <HAL_I2C_Init+0x13c>
 8000ec8:	68fb      	ldr	r3, [r7, #12]
 8000eca:	1e59      	subs	r1, r3, #1
 8000ecc:	687b      	ldr	r3, [r7, #4]
 8000ece:	685b      	ldr	r3, [r3, #4]
 8000ed0:	005b      	lsls	r3, r3, #1
 8000ed2:	fbb1 f3f3 	udiv	r3, r1, r3
 8000ed6:	1c59      	adds	r1, r3, #1
 8000ed8:	f640 73fc 	movw	r3, #4092	@ 0xffc
 8000edc:	400b      	ands	r3, r1
 8000ede:	2b00      	cmp	r3, #0
 8000ee0:	d00a      	beq.n	8000ef8 <HAL_I2C_Init+0x138>
 8000ee2:	68fb      	ldr	r3, [r7, #12]
 8000ee4:	1e59      	subs	r1, r3, #1
 8000ee6:	687b      	ldr	r3, [r7, #4]
 8000ee8:	685b      	ldr	r3, [r3, #4]
 8000eea:	005b      	lsls	r3, r3, #1
 8000eec:	fbb1 f3f3 	udiv	r3, r1, r3
 8000ef0:	3301      	adds	r3, #1
 8000ef2:	f3c3 030b 	ubfx	r3, r3, #0, #12
 8000ef6:	e051      	b.n	8000f9c <HAL_I2C_Init+0x1dc>
 8000ef8:	2304      	movs	r3, #4
 8000efa:	e04f      	b.n	8000f9c <HAL_I2C_Init+0x1dc>
 8000efc:	687b      	ldr	r3, [r7, #4]
 8000efe:	689b      	ldr	r3, [r3, #8]
 8000f00:	2b00      	cmp	r3, #0
 8000f02:	d111      	bne.n	8000f28 <HAL_I2C_Init+0x168>
 8000f04:	68fb      	ldr	r3, [r7, #12]
 8000f06:	1e58      	subs	r0, r3, #1
 8000f08:	687b      	ldr	r3, [r7, #4]
 8000f0a:	6859      	ldr	r1, [r3, #4]
 8000f0c:	460b      	mov	r3, r1
 8000f0e:	005b      	lsls	r3, r3, #1
 8000f10:	440b      	add	r3, r1
 8000f12:	fbb0 f3f3 	udiv	r3, r0, r3
 8000f16:	3301      	adds	r3, #1
 8000f18:	f3c3 030b 	ubfx	r3, r3, #0, #12
 8000f1c:	2b00      	cmp	r3, #0
 8000f1e:	bf0c      	ite	eq
 8000f20:	2301      	moveq	r3, #1
 8000f22:	2300      	movne	r3, #0
 8000f24:	b2db      	uxtb	r3, r3
 8000f26:	e012      	b.n	8000f4e <HAL_I2C_Init+0x18e>
 8000f28:	68fb      	ldr	r3, [r7, #12]
 8000f2a:	1e58      	subs	r0, r3, #1
 8000f2c:	687b      	ldr	r3, [r7, #4]
 8000f2e:	6859      	ldr	r1, [r3, #4]
 8000f30:	460b      	mov	r3, r1
 8000f32:	009b      	lsls	r3, r3, #2
 8000f34:	440b      	add	r3, r1
 8000f36:	0099      	lsls	r1, r3, #2
 8000f38:	440b      	add	r3, r1
 8000f3a:	fbb0 f3f3 	udiv	r3, r0, r3
 8000f3e:	3301      	adds	r3, #1
 8000f40:	f3c3 030b 	ubfx	r3, r3, #0, #12
 8000f44:	2b00      	cmp	r3, #0
 8000f46:	bf0c      	ite	eq
 8000f48:	2301      	moveq	r3, #1
 8000f4a:	2300      	movne	r3, #0
 8000f4c:	b2db      	uxtb	r3, r3
 8000f4e:	2b00      	cmp	r3, #0
 8000f50:	d001      	beq.n	8000f56 <HAL_I2C_Init+0x196>
 8000f52:	2301      	movs	r3, #1
 8000f54:	e022      	b.n	8000f9c <HAL_I2C_Init+0x1dc>
 8000f56:	687b      	ldr	r3, [r7, #4]
 8000f58:	689b      	ldr	r3, [r3, #8]
 8000f5a:	2b00      	cmp	r3, #0
 8000f5c:	d10e      	bne.n	8000f7c <HAL_I2C_Init+0x1bc>
 8000f5e:	68fb      	ldr	r3, [r7, #12]
 8000f60:	1e58      	subs	r0, r3, #1
 8000f62:	687b      	ldr	r3, [r7, #4]
 8000f64:	6859      	ldr	r1, [r3, #4]
 8000f66:	460b      	mov	r3, r1
 8000f68:	005b      	lsls	r3, r3, #1
 8000f6a:	440b      	add	r3, r1
 8000f6c:	fbb0 f3f3 	udiv	r3, r0, r3
 8000f70:	3301      	adds	r3, #1
 8000f72:	f3c3 030b 	ubfx	r3, r3, #0, #12
 8000f76:	f443 4300 	orr.w	r3, r3, #32768	@ 0x8000
 8000f7a:	e00f      	b.n	8000f9c <HAL_I2C_Init+0x1dc>
 8000f7c:	68fb      	ldr	r3, [r7, #12]
 8000f7e:	1e58      	subs	r0, r3, #1
 8000f80:	687b      	ldr	r3, [r7, #4]
 8000f82:	6859      	ldr	r1, [r3, #4]
 8000f84:	460b      	mov	r3, r1
 8000f86:	009b      	lsls	r3, r3, #2
 8000f88:	440b      	add	r3, r1
 8000f8a:	0099      	lsls	r1, r3, #2
 8000f8c:	440b      	add	r3, r1
 8000f8e:	fbb0 f3f3 	udiv	r3, r0, r3
 8000f92:	3301      	adds	r3, #1
 8000f94:	f3c3 030b 	ubfx	r3, r3, #0, #12
 8000f98:	f443 4340 	orr.w	r3, r3, #49152	@ 0xc000
 8000f9c:	6879      	ldr	r1, [r7, #4]
 8000f9e:	6809      	ldr	r1, [r1, #0]
 8000fa0:	4313      	orrs	r3, r2
 8000fa2:	61cb      	str	r3, [r1, #28]
 8000fa4:	687b      	ldr	r3, [r7, #4]
 8000fa6:	681b      	ldr	r3, [r3, #0]
 8000fa8:	681b      	ldr	r3, [r3, #0]
 8000faa:	f023 01c0 	bic.w	r1, r3, #192	@ 0xc0
 8000fae:	687b      	ldr	r3, [r7, #4]
 8000fb0:	69da      	ldr	r2, [r3, #28]
 8000fb2:	687b      	ldr	r3, [r7, #4]
 8000fb4:	6a1b      	ldr	r3, [r3, #32]
 8000fb6:	431a      	orrs	r2, r3
 8000fb8:	687b      	ldr	r3, [r7, #4]
 8000fba:	681b      	ldr	r3, [r3, #0]
 8000fbc:	430a      	orrs	r2, r1
 8000fbe:	601a      	str	r2, [r3, #0]
 8000fc0:	687b      	ldr	r3, [r7, #4]
 8000fc2:	681b      	ldr	r3, [r3, #0]
 8000fc4:	689b      	ldr	r3, [r3, #8]
 8000fc6:	f423 4303 	bic.w	r3, r3, #33536	@ 0x8300
 8000fca:	f023 03ff 	bic.w	r3, r3, #255	@ 0xff
 8000fce:	687a      	ldr	r2, [r7, #4]
 8000fd0:	6911      	ldr	r1, [r2, #16]
 8000fd2:	687a      	ldr	r2, [r7, #4]
 8000fd4:	68d2      	ldr	r2, [r2, #12]
 8000fd6:	4311      	orrs	r1, r2
 8000fd8:	687a      	ldr	r2, [r7, #4]
 8000fda:	6812      	ldr	r2, [r2, #0]
 8000fdc:	430b      	orrs	r3, r1
 8000fde:	6093      	str	r3, [r2, #8]
 8000fe0:	687b      	ldr	r3, [r7, #4]
 8000fe2:	681b      	ldr	r3, [r3, #0]
 8000fe4:	68db      	ldr	r3, [r3, #12]
 8000fe6:	f023 01ff 	bic.w	r1, r3, #255	@ 0xff
 8000fea:	687b      	ldr	r3, [r7, #4]
 8000fec:	695a      	ldr	r2, [r3, #20]
 8000fee:	687b      	ldr	r3, [r7, #4]
 8000ff0:	699b      	ldr	r3, [r3, #24]
 8000ff2:	431a      	orrs	r2, r3
 8000ff4:	687b      	ldr	r3, [r7, #4]
 8000ff6:	681b      	ldr	r3, [r3, #0]
 8000ff8:	430a      	orrs	r2, r1
 8000ffa:	60da      	str	r2, [r3, #12]
 8000ffc:	687b      	ldr	r3, [r7, #4]
 8000ffe:	681b      	ldr	r3, [r3, #0]
 8001000:	681a      	ldr	r2, [r3, #0]
 8001002:	687b      	ldr	r3, [r7, #4]
 8001004:	681b      	ldr	r3, [r3, #0]
 8001006:	f042 0201 	orr.w	r2, r2, #1
 800100a:	601a      	str	r2, [r3, #0]
 800100c:	687b      	ldr	r3, [r7, #4]
 800100e:	2200      	movs	r2, #0
 8001010:	641a      	str	r2, [r3, #64]	@ 0x40
 8001012:	687b      	ldr	r3, [r7, #4]
 8001014:	2220      	movs	r2, #32
 8001016:	f883 203d 	strb.w	r2, [r3, #61]	@ 0x3d
 800101a:	687b      	ldr	r3, [r7, #4]
 800101c:	2200      	movs	r2, #0
 800101e:	631a      	str	r2, [r3, #48]	@ 0x30
 8001020:	687b      	ldr	r3, [r7, #4]
 8001022:	2200      	movs	r2, #0
 8001024:	f883 203e 	strb.w	r2, [r3, #62]	@ 0x3e
 8001028:	2300      	movs	r3, #0
 800102a:	4618      	mov	r0, r3
 800102c:	3710      	adds	r7, #16
 800102e:	46bd      	mov	sp, r7
 8001030:	bd80      	pop	{r7, pc}
 8001032:	bf00      	nop
 8001034:	000186a0 	.word	0x000186a0
 8001038:	001e847f 	.word	0x001e847f
 800103c:	003d08ff 	.word	0x003d08ff
 8001040:	431bde83 	.word	0x431bde83
 8001044:	10624dd3 	.word	0x10624dd3

08001048 <HAL_I2C_Master_Transmit>:
 8001048:	b580      	push	{r7, lr}
 800104a:	b088      	sub	sp, #32
 800104c:	af02      	add	r7, sp, #8
 800104e:	60f8      	str	r0, [r7, #12]
 8001050:	607a      	str	r2, [r7, #4]
 8001052:	461a      	mov	r2, r3
 8001054:	460b      	mov	r3, r1
 8001056:	817b      	strh	r3, [r7, #10]
 8001058:	4613      	mov	r3, r2
 800105a:	813b      	strh	r3, [r7, #8]
 800105c:	f7ff fc02 	bl	8000864 <HAL_GetTick>
 8001060:	6178      	str	r0, [r7, #20]
 8001062:	68fb      	ldr	r3, [r7, #12]
 8001064:	f893 303d 	ldrb.w	r3, [r3, #61]	@ 0x3d
 8001068:	b2db      	uxtb	r3, r3
 800106a:	2b20      	cmp	r3, #32
 800106c:	f040 80e0 	bne.w	8001230 <HAL_I2C_Master_Transmit+0x1e8>
 8001070:	697b      	ldr	r3, [r7, #20]
 8001072:	9300      	str	r3, [sp, #0]
 8001074:	2319      	movs	r3, #25
 8001076:	2201      	movs	r2, #1
 8001078:	4970      	ldr	r1, [pc, #448]	@ (800123c <HAL_I2C_Master_Transmit+0x1f4>)
 800107a:	68f8      	ldr	r0, [r7, #12]
 800107c:	f000 f964 	bl	8001348 <I2C_WaitOnFlagUntilTimeout>
 8001080:	4603      	mov	r3, r0
 8001082:	2b00      	cmp	r3, #0
 8001084:	d001      	beq.n	800108a <HAL_I2C_Master_Transmit+0x42>
 8001086:	2302      	movs	r3, #2
 8001088:	e0d3      	b.n	8001232 <HAL_I2C_Master_Transmit+0x1ea>
 800108a:	68fb      	ldr	r3, [r7, #12]
 800108c:	f893 303c 	ldrb.w	r3, [r3, #60]	@ 0x3c
 8001090:	2b01      	cmp	r3, #1
 8001092:	d101      	bne.n	8001098 <HAL_I2C_Master_Transmit+0x50>
 8001094:	2302      	movs	r3, #2
 8001096:	e0cc      	b.n	8001232 <HAL_I2C_Master_Transmit+0x1ea>
 8001098:	68fb      	ldr	r3, [r7, #12]
 800109a:	2201      	movs	r2, #1
 800109c:	f883 203c 	strb.w	r2, [r3, #60]	@ 0x3c
 80010a0:	68fb      	ldr	r3, [r7, #12]
 80010a2:	681b      	ldr	r3, [r3, #0]
 80010a4:	681b      	ldr	r3, [r3, #0]
 80010a6:	f003 0301 	and.w	r3, r3, #1
 80010aa:	2b01      	cmp	r3, #1
 80010ac:	d007      	beq.n	80010be <HAL_I2C_Master_Transmit+0x76>
 80010ae:	68fb      	ldr	r3, [r7, #12]
 80010b0:	681b      	ldr	r3, [r3, #0]
 80010b2:	681a      	ldr	r2, [r3, #0]
 80010b4:	68fb      	ldr	r3, [r7, #12]
 80010b6:	681b      	ldr	r3, [r3, #0]
 80010b8:	f042 0201 	orr.w	r2, r2, #1
 80010bc:	601a      	str	r2, [r3, #0]
 80010be:	68fb      	ldr	r3, [r7, #12]
 80010c0:	681b      	ldr	r3, [r3, #0]
 80010c2:	681a      	ldr	r2, [r3, #0]
 80010c4:	68fb      	ldr	r3, [r7, #12]
 80010c6:	681b      	ldr	r3, [r3, #0]
 80010c8:	f422 6200 	bic.w	r2, r2, #2048	@ 0x800
 80010cc:	601a      	str	r2, [r3, #0]
 80010ce:	68fb      	ldr	r3, [r7, #12]
 80010d0:	2221      	movs	r2, #33	@ 0x21
 80010d2:	f883 203d 	strb.w	r2, [r3, #61]	@ 0x3d
 80010d6:	68fb      	ldr	r3, [r7, #12]
 80010d8:	2210      	movs	r2, #16
 80010da:	f883 203e 	strb.w	r2, [r3, #62]	@ 0x3e
 80010de:	68fb      	ldr	r3, [r7, #12]
 80010e0:	2200      	movs	r2, #0
 80010e2:	641a      	str	r2, [r3, #64]	@ 0x40
 80010e4:	68fb      	ldr	r3, [r7, #12]
 80010e6:	687a      	ldr	r2, [r7, #4]
 80010e8:	625a      	str	r2, [r3, #36]	@ 0x24
 80010ea:	68fb      	ldr	r3, [r7, #12]
 80010ec:	893a      	ldrh	r2, [r7, #8]
 80010ee:	855a      	strh	r2, [r3, #42]	@ 0x2a
 80010f0:	68fb      	ldr	r3, [r7, #12]
 80010f2:	8d5b      	ldrh	r3, [r3, #42]	@ 0x2a
 80010f4:	b29a      	uxth	r2, r3
 80010f6:	68fb      	ldr	r3, [r7, #12]
 80010f8:	851a      	strh	r2, [r3, #40]	@ 0x28
 80010fa:	68fb      	ldr	r3, [r7, #12]
 80010fc:	4a50      	ldr	r2, [pc, #320]	@ (8001240 <HAL_I2C_Master_Transmit+0x1f8>)
 80010fe:	62da      	str	r2, [r3, #44]	@ 0x2c
 8001100:	8979      	ldrh	r1, [r7, #10]
 8001102:	697b      	ldr	r3, [r7, #20]
 8001104:	6a3a      	ldr	r2, [r7, #32]
 8001106:	68f8      	ldr	r0, [r7, #12]
 8001108:	f000 f89c 	bl	8001244 <I2C_MasterRequestWrite>
 800110c:	4603      	mov	r3, r0
 800110e:	2b00      	cmp	r3, #0
 8001110:	d001      	beq.n	8001116 <HAL_I2C_Master_Transmit+0xce>
 8001112:	2301      	movs	r3, #1
 8001114:	e08d      	b.n	8001232 <HAL_I2C_Master_Transmit+0x1ea>
 8001116:	2300      	movs	r3, #0
 8001118:	613b      	str	r3, [r7, #16]
 800111a:	68fb      	ldr	r3, [r7, #12]
 800111c:	681b      	ldr	r3, [r3, #0]
 800111e:	695b      	ldr	r3, [r3, #20]
 8001120:	613b      	str	r3, [r7, #16]
 8001122:	68fb      	ldr	r3, [r7, #12]
 8001124:	681b      	ldr	r3, [r3, #0]
 8001126:	699b      	ldr	r3, [r3, #24]
 8001128:	613b      	str	r3, [r7, #16]
 800112a:	693b      	ldr	r3, [r7, #16]
 800112c:	e066      	b.n	80011fc <HAL_I2C_Master_Transmit+0x1b4>
 800112e:	697a      	ldr	r2, [r7, #20]
 8001130:	6a39      	ldr	r1, [r7, #32]
 8001132:	68f8      	ldr	r0, [r7, #12]
 8001134:	f000 fa22 	bl	800157c <I2C_WaitOnTXEFlagUntilTimeout>
 8001138:	4603      	mov	r3, r0
 800113a:	2b00      	cmp	r3, #0
 800113c:	d00d      	beq.n	800115a <HAL_I2C_Master_Transmit+0x112>
 800113e:	68fb      	ldr	r3, [r7, #12]
 8001140:	6c1b      	ldr	r3, [r3, #64]	@ 0x40
 8001142:	2b04      	cmp	r3, #4
 8001144:	d107      	bne.n	8001156 <HAL_I2C_Master_Transmit+0x10e>
 8001146:	68fb      	ldr	r3, [r7, #12]
 8001148:	681b      	ldr	r3, [r3, #0]
 800114a:	681a      	ldr	r2, [r3, #0]
 800114c:	68fb      	ldr	r3, [r7, #12]
 800114e:	681b      	ldr	r3, [r3, #0]
 8001150:	f442 7200 	orr.w	r2, r2, #512	@ 0x200
 8001154:	601a      	str	r2, [r3, #0]
 8001156:	2301      	movs	r3, #1
 8001158:	e06b      	b.n	8001232 <HAL_I2C_Master_Transmit+0x1ea>
 800115a:	68fb      	ldr	r3, [r7, #12]
 800115c:	6a5b      	ldr	r3, [r3, #36]	@ 0x24
 800115e:	781a      	ldrb	r2, [r3, #0]
 8001160:	68fb      	ldr	r3, [r7, #12]
 8001162:	681b      	ldr	r3, [r3, #0]
 8001164:	611a      	str	r2, [r3, #16]
 8001166:	68fb      	ldr	r3, [r7, #12]
 8001168:	6a5b      	ldr	r3, [r3, #36]	@ 0x24
 800116a:	1c5a      	adds	r2, r3, #1
 800116c:	68fb      	ldr	r3, [r7, #12]
 800116e:	625a      	str	r2, [r3, #36]	@ 0x24
 8001170:	68fb      	ldr	r3, [r7, #12]
 8001172:	8d5b      	ldrh	r3, [r3, #42]	@ 0x2a
 8001174:	b29b      	uxth	r3, r3
 8001176:	3b01      	subs	r3, #1
 8001178:	b29a      	uxth	r2, r3
 800117a:	68fb      	ldr	r3, [r7, #12]
 800117c:	855a      	strh	r2, [r3, #42]	@ 0x2a
 800117e:	68fb      	ldr	r3, [r7, #12]
 8001180:	8d1b      	ldrh	r3, [r3, #40]	@ 0x28
 8001182:	3b01      	subs	r3, #1
 8001184:	b29a      	uxth	r2, r3
 8001186:	68fb      	ldr	r3, [r7, #12]
 8001188:	851a      	strh	r2, [r3, #40]	@ 0x28
 800118a:	68fb      	ldr	r3, [r7, #12]
 800118c:	681b      	ldr	r3, [r3, #0]
 800118e:	695b      	ldr	r3, [r3, #20]
 8001190:	f003 0304 	and.w	r3, r3, #4
 8001194:	2b04      	cmp	r3, #4
 8001196:	d11b      	bne.n	80011d0 <HAL_I2C_Master_Transmit+0x188>
 8001198:	68fb      	ldr	r3, [r7, #12]
 800119a:	8d1b      	ldrh	r3, [r3, #40]	@ 0x28
 800119c:	2b00      	cmp	r3, #0
 800119e:	d017      	beq.n	80011d0 <HAL_I2C_Master_Transmit+0x188>
 80011a0:	68fb      	ldr	r3, [r7, #12]
 80011a2:	6a5b      	ldr	r3, [r3, #36]	@ 0x24
 80011a4:	781a      	ldrb	r2, [r3, #0]
 80011a6:	68fb      	ldr	r3, [r7, #12]
 80011a8:	681b      	ldr	r3, [r3, #0]
 80011aa:	611a      	str	r2, [r3, #16]
 80011ac:	68fb      	ldr	r3, [r7, #12]
 80011ae:	6a5b      	ldr	r3, [r3, #36]	@ 0x24
 80011b0:	1c5a      	adds	r2, r3, #1
 80011b2:	68fb      	ldr	r3, [r7, #12]
 80011b4:	625a      	str	r2, [r3, #36]	@ 0x24
 80011b6:	68fb      	ldr	r3, [r7, #12]
 80011b8:	8d5b      	ldrh	r3, [r3, #42]	@ 0x2a
 80011ba:	b29b      	uxth	r3, r3
 80011bc:	3b01      	subs	r3, #1
 80011be:	b29a      	uxth	r2, r3
 80011c0:	68fb      	ldr	r3, [r7, #12]
 80011c2:	855a      	strh	r2, [r3, #42]	@ 0x2a
 80011c4:	68fb      	ldr	r3, [r7, #12]
 80011c6:	8d1b      	ldrh	r3, [r3, #40]	@ 0x28
 80011c8:	3b01      	subs	r3, #1
 80011ca:	b29a      	uxth	r2, r3
 80011cc:	68fb      	ldr	r3, [r7, #12]
 80011ce:	851a      	strh	r2, [r3, #40]	@ 0x28
 80011d0:	697a      	ldr	r2, [r7, #20]
 80011d2:	6a39      	ldr	r1, [r7, #32]
 80011d4:	68f8      	ldr	r0, [r7, #12]
 80011d6:	f000 fa19 	bl	800160c <I2C_WaitOnBTFFlagUntilTimeout>
 80011da:	4603      	mov	r3, r0
 80011dc:	2b00      	cmp	r3, #0
 80011de:	d00d      	beq.n	80011fc <HAL_I2C_Master_Transmit+0x1b4>
 80011e0:	68fb      	ldr	r3, [r7, #12]
 80011e2:	6c1b      	ldr	r3, [r3, #64]	@ 0x40
 80011e4:	2b04      	cmp	r3, #4
 80011e6:	d107      	bne.n	80011f8 <HAL_I2C_Master_Transmit+0x1b0>
 80011e8:	68fb      	ldr	r3, [r7, #12]
 80011ea:	681b      	ldr	r3, [r3, #0]
 80011ec:	681a      	ldr	r2, [r3, #0]
 80011ee:	68fb      	ldr	r3, [r7, #12]
 80011f0:	681b      	ldr	r3, [r3, #0]
 80011f2:	f442 7200 	orr.w	r2, r2, #512	@ 0x200
 80011f6:	601a      	str	r2, [r3, #0]
 80011f8:	2301      	movs	r3, #1
 80011fa:	e01a      	b.n	8001232 <HAL_I2C_Master_Transmit+0x1ea>
 80011fc:	68fb      	ldr	r3, [r7, #12]
 80011fe:	8d1b      	ldrh	r3, [r3, #40]	@ 0x28
 8001200:	2b00      	cmp	r3, #0
 8001202:	d194      	bne.n	800112e <HAL_I2C_Master_Transmit+0xe6>
 8001204:	68fb      	ldr	r3, [r7, #12]
 8001206:	681b      	ldr	r3, [r3, #0]
 8001208:	681a      	ldr	r2, [r3, #0]
 800120a:	68fb      	ldr	r3, [r7, #12]
 800120c:	681b      	ldr	r3, [r3, #0]
 800120e:	f442 7200 	orr.w	r2, r2, #512	@ 0x200
 8001212:	601a      	str	r2, [r3, #0]
 8001214:	68fb      	ldr	r3, [r7, #12]
 8001216:	2220      	movs	r2, #32
 8001218:	f883 203d 	strb.w	r2, [r3, #61]	@ 0x3d
 800121c:	68fb      	ldr	r3, [r7, #12]
 800121e:	2200      	movs	r2, #0
 8001220:	f883 203e 	strb.w	r2, [r3, #62]	@ 0x3e
 8001224:	68fb      	ldr	r3, [r7, #12]
 8001226:	2200      	movs	r2, #0
 8001228:	f883 203c 	strb.w	r2, [r3, #60]	@ 0x3c
 800122c:	2300      	movs	r3, #0
 800122e:	e000      	b.n	8001232 <HAL_I2C_Master_Transmit+0x1ea>
 8001230:	2302      	movs	r3, #2
 8001232:	4618      	mov	r0, r3
 8001234:	3718      	adds	r7, #24
 8001236:	46bd      	mov	sp, r7
 8001238:	bd80      	pop	{r7, pc}
 800123a:	bf00      	nop
 800123c:	00100002 	.word	0x00100002
 8001240:	ffff0000 	.word	0xffff0000

08001244 <I2C_MasterRequestWrite>:
 8001244:	b580      	push	{r7, lr}
 8001246:	b088      	sub	sp, #32
 8001248:	af02      	add	r7, sp, #8
 800124a:	60f8      	str	r0, [r7, #12]
 800124c:	607a      	str	r2, [r7, #4]
 800124e:	603b      	str	r3, [r7, #0]
 8001250:	460b      	mov	r3, r1
 8001252:	817b      	strh	r3, [r7, #10]
 8001254:	68fb      	ldr	r3, [r7, #12]
 8001256:	6adb      	ldr	r3, [r3, #44]	@ 0x2c
 8001258:	617b      	str	r3, [r7, #20]
 800125a:	697b      	ldr	r3, [r7, #20]
 800125c:	2b08      	cmp	r3, #8
 800125e:	d006      	beq.n	800126e <I2C_MasterRequestWrite+0x2a>
 8001260:	697b      	ldr	r3, [r7, #20]
 8001262:	2b01      	cmp	r3, #1
 8001264:	d003      	beq.n	800126e <I2C_MasterRequestWrite+0x2a>
 8001266:	697b      	ldr	r3, [r7, #20]
 8001268:	f513 3f80 	cmn.w	r3, #65536	@ 0x10000
 800126c:	d108      	bne.n	8001280 <I2C_MasterRequestWrite+0x3c>
 800126e:	68fb      	ldr	r3, [r7, #12]
 8001270:	681b      	ldr	r3, [r3, #0]
 8001272:	681a      	ldr	r2, [r3, #0]
 8001274:	68fb      	ldr	r3, [r7, #12]
 8001276:	681b      	ldr	r3, [r3, #0]
 8001278:	f442 7280 	orr.w	r2, r2, #256	@ 0x100
 800127c:	601a      	str	r2, [r3, #0]
 800127e:	e00b      	b.n	8001298 <I2C_MasterRequestWrite+0x54>
 8001280:	68fb      	ldr	r3, [r7, #12]
 8001282:	6b1b      	ldr	r3, [r3, #48]	@ 0x30
 8001284:	2b12      	cmp	r3, #18
 8001286:	d107      	bne.n	8001298 <I2C_MasterRequestWrite+0x54>
 8001288:	68fb      	ldr	r3, [r7, #12]
 800128a:	681b      	ldr	r3, [r3, #0]
 800128c:	681a      	ldr	r2, [r3, #0]
 800128e:	68fb      	ldr	r3, [r7, #12]
 8001290:	681b      	ldr	r3, [r3, #0]
 8001292:	f442 7280 	orr.w	r2, r2, #256	@ 0x100
 8001296:	601a      	str	r2, [r3, #0]
 8001298:	683b      	ldr	r3, [r7, #0]
 800129a:	9300      	str	r3, [sp, #0]
 800129c:	687b      	ldr	r3, [r7, #4]
 800129e:	2200      	movs	r2, #0
 80012a0:	f04f 1101 	mov.w	r1, #65537	@ 0x10001
 80012a4:	68f8      	ldr	r0, [r7, #12]
 80012a6:	f000 f84f 	bl	8001348 <I2C_WaitOnFlagUntilTimeout>
 80012aa:	4603      	mov	r3, r0
 80012ac:	2b00      	cmp	r3, #0
 80012ae:	d00d      	beq.n	80012cc <I2C_MasterRequestWrite+0x88>
 80012b0:	68fb      	ldr	r3, [r7, #12]
 80012b2:	681b      	ldr	r3, [r3, #0]
 80012b4:	681b      	ldr	r3, [r3, #0]
 80012b6:	f403 7380 	and.w	r3, r3, #256	@ 0x100
 80012ba:	f5b3 7f80 	cmp.w	r3, #256	@ 0x100
 80012be:	d103      	bne.n	80012c8 <I2C_MasterRequestWrite+0x84>
 80012c0:	68fb      	ldr	r3, [r7, #12]
 80012c2:	f44f 7200 	mov.w	r2, #512	@ 0x200
 80012c6:	641a      	str	r2, [r3, #64]	@ 0x40
 80012c8:	2303      	movs	r3, #3
 80012ca:	e035      	b.n	8001338 <I2C_MasterRequestWrite+0xf4>
 80012cc:	68fb      	ldr	r3, [r7, #12]
 80012ce:	691b      	ldr	r3, [r3, #16]
 80012d0:	f5b3 4f80 	cmp.w	r3, #16384	@ 0x4000
 80012d4:	d108      	bne.n	80012e8 <I2C_MasterRequestWrite+0xa4>
 80012d6:	897b      	ldrh	r3, [r7, #10]
 80012d8:	b2db      	uxtb	r3, r3
 80012da:	461a      	mov	r2, r3
 80012dc:	68fb      	ldr	r3, [r7, #12]
 80012de:	681b      	ldr	r3, [r3, #0]
 80012e0:	f002 02fe 	and.w	r2, r2, #254	@ 0xfe
 80012e4:	611a      	str	r2, [r3, #16]
 80012e6:	e01b      	b.n	8001320 <I2C_MasterRequestWrite+0xdc>
 80012e8:	897b      	ldrh	r3, [r7, #10]
 80012ea:	11db      	asrs	r3, r3, #7
 80012ec:	b2db      	uxtb	r3, r3
 80012ee:	f003 0306 	and.w	r3, r3, #6
 80012f2:	b2db      	uxtb	r3, r3
 80012f4:	f063 030f 	orn	r3, r3, #15
 80012f8:	b2da      	uxtb	r2, r3
 80012fa:	68fb      	ldr	r3, [r7, #12]
 80012fc:	681b      	ldr	r3, [r3, #0]
 80012fe:	611a      	str	r2, [r3, #16]
 8001300:	683b      	ldr	r3, [r7, #0]
 8001302:	687a      	ldr	r2, [r7, #4]
 8001304:	490e      	ldr	r1, [pc, #56]	@ (8001340 <I2C_MasterRequestWrite+0xfc>)
 8001306:	68f8      	ldr	r0, [r7, #12]
 8001308:	f000 f898 	bl	800143c <I2C_WaitOnMasterAddressFlagUntilTimeout>
 800130c:	4603      	mov	r3, r0
 800130e:	2b00      	cmp	r3, #0
 8001310:	d001      	beq.n	8001316 <I2C_MasterRequestWrite+0xd2>
 8001312:	2301      	movs	r3, #1
 8001314:	e010      	b.n	8001338 <I2C_MasterRequestWrite+0xf4>
 8001316:	897b      	ldrh	r3, [r7, #10]
 8001318:	b2da      	uxtb	r2, r3
 800131a:	68fb      	ldr	r3, [r7, #12]
 800131c:	681b      	ldr	r3, [r3, #0]
 800131e:	611a      	str	r2, [r3, #16]
 8001320:	683b      	ldr	r3, [r7, #0]
 8001322:	687a      	ldr	r2, [r7, #4]
 8001324:	4907      	ldr	r1, [pc, #28]	@ (8001344 <I2C_MasterRequestWrite+0x100>)
 8001326:	68f8      	ldr	r0, [r7, #12]
 8001328:	f000 f888 	bl	800143c <I2C_WaitOnMasterAddressFlagUntilTimeout>
 800132c:	4603      	mov	r3, r0
 800132e:	2b00      	cmp	r3, #0
 8001330:	d001      	beq.n	8001336 <I2C_MasterRequestWrite+0xf2>
 8001332:	2301      	movs	r3, #1
 8001334:	e000      	b.n	8001338 <I2C_MasterRequestWrite+0xf4>
 8001336:	2300      	movs	r3, #0
 8001338:	4618      	mov	r0, r3
 800133a:	3718      	adds	r7, #24
 800133c:	46bd      	mov	sp, r7
 800133e:	bd80      	pop	{r7, pc}
 8001340:	00010008 	.word	0x00010008
 8001344:	00010002 	.word	0x00010002

08001348 <I2C_WaitOnFlagUntilTimeout>:
 8001348:	b580      	push	{r7, lr}
 800134a:	b084      	sub	sp, #16
 800134c:	af00      	add	r7, sp, #0
 800134e:	60f8      	str	r0, [r7, #12]
 8001350:	60b9      	str	r1, [r7, #8]
 8001352:	603b      	str	r3, [r7, #0]
 8001354:	4613      	mov	r3, r2
 8001356:	71fb      	strb	r3, [r7, #7]
 8001358:	e048      	b.n	80013ec <I2C_WaitOnFlagUntilTimeout+0xa4>
 800135a:	683b      	ldr	r3, [r7, #0]
 800135c:	f1b3 3fff 	cmp.w	r3, #4294967295
 8001360:	d044      	beq.n	80013ec <I2C_WaitOnFlagUntilTimeout+0xa4>
 8001362:	f7ff fa7f 	bl	8000864 <HAL_GetTick>
 8001366:	4602      	mov	r2, r0
 8001368:	69bb      	ldr	r3, [r7, #24]
 800136a:	1ad3      	subs	r3, r2, r3
 800136c:	683a      	ldr	r2, [r7, #0]
 800136e:	429a      	cmp	r2, r3
 8001370:	d302      	bcc.n	8001378 <I2C_WaitOnFlagUntilTimeout+0x30>
 8001372:	683b      	ldr	r3, [r7, #0]
 8001374:	2b00      	cmp	r3, #0
 8001376:	d139      	bne.n	80013ec <I2C_WaitOnFlagUntilTimeout+0xa4>
 8001378:	68bb      	ldr	r3, [r7, #8]
 800137a:	0c1b      	lsrs	r3, r3, #16
 800137c:	b2db      	uxtb	r3, r3
 800137e:	2b01      	cmp	r3, #1
 8001380:	d10d      	bne.n	800139e <I2C_WaitOnFlagUntilTimeout+0x56>
 8001382:	68fb      	ldr	r3, [r7, #12]
 8001384:	681b      	ldr	r3, [r3, #0]
 8001386:	695b      	ldr	r3, [r3, #20]
 8001388:	43da      	mvns	r2, r3
 800138a:	68bb      	ldr	r3, [r7, #8]
 800138c:	4013      	ands	r3, r2
 800138e:	b29b      	uxth	r3, r3
 8001390:	2b00      	cmp	r3, #0
 8001392:	bf0c      	ite	eq
 8001394:	2301      	moveq	r3, #1
 8001396:	2300      	movne	r3, #0
 8001398:	b2db      	uxtb	r3, r3
 800139a:	461a      	mov	r2, r3
 800139c:	e00c      	b.n	80013b8 <I2C_WaitOnFlagUntilTimeout+0x70>
 800139e:	68fb      	ldr	r3, [r7, #12]
 80013a0:	681b      	ldr	r3, [r3, #0]
 80013a2:	699b      	ldr	r3, [r3, #24]
 80013a4:	43da      	mvns	r2, r3
 80013a6:	68bb      	ldr	r3, [r7, #8]
 80013a8:	4013      	ands	r3, r2
 80013aa:	b29b      	uxth	r3, r3
 80013ac:	2b00      	cmp	r3, #0
 80013ae:	bf0c      	ite	eq
 80013b0:	2301      	moveq	r3, #1
 80013b2:	2300      	movne	r3, #0
 80013b4:	b2db      	uxtb	r3, r3
 80013b6:	461a      	mov	r2, r3
 80013b8:	79fb      	ldrb	r3, [r7, #7]
 80013ba:	429a      	cmp	r2, r3
 80013bc:	d116      	bne.n	80013ec <I2C_WaitOnFlagUntilTimeout+0xa4>
 80013be:	68fb      	ldr	r3, [r7, #12]
 80013c0:	2200      	movs	r2, #0
 80013c2:	631a      	str	r2, [r3, #48]	@ 0x30
 80013c4:	68fb      	ldr	r3, [r7, #12]
 80013c6:	2220      	movs	r2, #32
 80013c8:	f883 203d 	strb.w	r2, [r3, #61]	@ 0x3d
 80013cc:	68fb      	ldr	r3, [r7, #12]
 80013ce:	2200      	movs	r2, #0
 80013d0:	f883 203e 	strb.w	r2, [r3, #62]	@ 0x3e
 80013d4:	68fb      	ldr	r3, [r7, #12]
 80013d6:	6c1b      	ldr	r3, [r3, #64]	@ 0x40
 80013d8:	f043 0220 	orr.w	r2, r3, #32
 80013dc:	68fb      	ldr	r3, [r7, #12]
 80013de:	641a      	str	r2, [r3, #64]	@ 0x40
 80013e0:	68fb      	ldr	r3, [r7, #12]
 80013e2:	2200      	movs	r2, #0
 80013e4:	f883 203c 	strb.w	r2, [r3, #60]	@ 0x3c
 80013e8:	2301      	movs	r3, #1
 80013ea:	e023      	b.n	8001434 <I2C_WaitOnFlagUntilTimeout+0xec>
 80013ec:	68bb      	ldr	r3, [r7, #8]
 80013ee:	0c1b      	lsrs	r3, r3, #16
 80013f0:	b2db      	uxtb	r3, r3
 80013f2:	2b01      	cmp	r3, #1
 80013f4:	d10d      	bne.n	8001412 <I2C_WaitOnFlagUntilTimeout+0xca>
 80013f6:	68fb      	ldr	r3, [r7, #12]
 80013f8:	681b      	ldr	r3, [r3, #0]
 80013fa:	695b      	ldr	r3, [r3, #20]
 80013fc:	43da      	mvns	r2, r3
 80013fe:	68bb      	ldr	r3, [r7, #8]
 8001400:	4013      	ands	r3, r2
 8001402:	b29b      	uxth	r3, r3
 8001404:	2b00      	cmp	r3, #0
 8001406:	bf0c      	ite	eq
 8001408:	2301      	moveq	r3, #1
 800140a:	2300      	movne	r3, #0
 800140c:	b2db      	uxtb	r3, r3
 800140e:	461a      	mov	r2, r3
 8001410:	e00c      	b.n	800142c <I2C_WaitOnFlagUntilTimeout+0xe4>
 8001412:	68fb      	ldr	r3, [r7, #12]
 8001414:	681b      	ldr	r3, [r3, #0]
 8001416:	699b      	ldr	r3, [r3, #24]
 8001418:	43da      	mvns	r2, r3
 800141a:	68bb      	ldr	r3, [r7, #8]
 800141c:	4013      	ands	r3, r2
 800141e:	b29b      	uxth	r3, r3
 8001420:	2b00      	cmp	r3, #0
 8001422:	bf0c      	ite	eq
 8001424:	2301      	moveq	r3, #1
 8001426:	2300      	movne	r3, #0
 8001428:	b2db      	uxtb	r3, r3
 800142a:	461a      	mov	r2, r3
 800142c:	79fb      	ldrb	r3, [r7, #7]
 800142e:	429a      	cmp	r2, r3
 8001430:	d093      	beq.n	800135a <I2C_WaitOnFlagUntilTimeout+0x12>
 8001432:	2300      	movs	r3, #0
 8001434:	4618      	mov	r0, r3
 8001436:	3710      	adds	r7, #16
 8001438:	46bd      	mov	sp, r7
 800143a:	bd80      	pop	{r7, pc}

0800143c <I2C_WaitOnMasterAddressFlagUntilTimeout>:
 800143c:	b580      	push	{r7, lr}
 800143e:	b084      	sub	sp, #16
 8001440:	af00      	add	r7, sp, #0
 8001442:	60f8      	str	r0, [r7, #12]
 8001444:	60b9      	str	r1, [r7, #8]
 8001446:	607a      	str	r2, [r7, #4]
 8001448:	603b      	str	r3, [r7, #0]
 800144a:	e071      	b.n	8001530 <I2C_WaitOnMasterAddressFlagUntilTimeout+0xf4>
 800144c:	68fb      	ldr	r3, [r7, #12]
 800144e:	681b      	ldr	r3, [r3, #0]
 8001450:	695b      	ldr	r3, [r3, #20]
 8001452:	f403 6380 	and.w	r3, r3, #1024	@ 0x400
 8001456:	f5b3 6f80 	cmp.w	r3, #1024	@ 0x400
 800145a:	d123      	bne.n	80014a4 <I2C_WaitOnMasterAddressFlagUntilTimeout+0x68>
 800145c:	68fb      	ldr	r3, [r7, #12]
 800145e:	681b      	ldr	r3, [r3, #0]
 8001460:	681a      	ldr	r2, [r3, #0]
 8001462:	68fb      	ldr	r3, [r7, #12]
 8001464:	681b      	ldr	r3, [r3, #0]
 8001466:	f442 7200 	orr.w	r2, r2, #512	@ 0x200
 800146a:	601a      	str	r2, [r3, #0]
 800146c:	68fb      	ldr	r3, [r7, #12]
 800146e:	681b      	ldr	r3, [r3, #0]
 8001470:	f46f 6280 	mvn.w	r2, #1024	@ 0x400
 8001474:	615a      	str	r2, [r3, #20]
 8001476:	68fb      	ldr	r3, [r7, #12]
 8001478:	2200      	movs	r2, #0
 800147a:	631a      	str	r2, [r3, #48]	@ 0x30
 800147c:	68fb      	ldr	r3, [r7, #12]
 800147e:	2220      	movs	r2, #32
 8001480:	f883 203d 	strb.w	r2, [r3, #61]	@ 0x3d
 8001484:	68fb      	ldr	r3, [r7, #12]
 8001486:	2200      	movs	r2, #0
 8001488:	f883 203e 	strb.w	r2, [r3, #62]	@ 0x3e
 800148c:	68fb      	ldr	r3, [r7, #12]
 800148e:	6c1b      	ldr	r3, [r3, #64]	@ 0x40
 8001490:	f043 0204 	orr.w	r2, r3, #4
 8001494:	68fb      	ldr	r3, [r7, #12]
 8001496:	641a      	str	r2, [r3, #64]	@ 0x40
 8001498:	68fb      	ldr	r3, [r7, #12]
 800149a:	2200      	movs	r2, #0
 800149c:	f883 203c 	strb.w	r2, [r3, #60]	@ 0x3c
 80014a0:	2301      	movs	r3, #1
 80014a2:	e067      	b.n	8001574 <I2C_WaitOnMasterAddressFlagUntilTimeout+0x138>
 80014a4:	687b      	ldr	r3, [r7, #4]
 80014a6:	f1b3 3fff 	cmp.w	r3, #4294967295
 80014aa:	d041      	beq.n	8001530 <I2C_WaitOnMasterAddressFlagUntilTimeout+0xf4>
 80014ac:	f7ff f9da 	bl	8000864 <HAL_GetTick>
 80014b0:	4602      	mov	r2, r0
 80014b2:	683b      	ldr	r3, [r7, #0]
 80014b4:	1ad3      	subs	r3, r2, r3
 80014b6:	687a      	ldr	r2, [r7, #4]
 80014b8:	429a      	cmp	r2, r3
 80014ba:	d302      	bcc.n	80014c2 <I2C_WaitOnMasterAddressFlagUntilTimeout+0x86>
 80014bc:	687b      	ldr	r3, [r7, #4]
 80014be:	2b00      	cmp	r3, #0
 80014c0:	d136      	bne.n	8001530 <I2C_WaitOnMasterAddressFlagUntilTimeout+0xf4>
 80014c2:	68bb      	ldr	r3, [r7, #8]
 80014c4:	0c1b      	lsrs	r3, r3, #16
 80014c6:	b2db      	uxtb	r3, r3
 80014c8:	2b01      	cmp	r3, #1
 80014ca:	d10c      	bne.n	80014e6 <I2C_WaitOnMasterAddressFlagUntilTimeout+0xaa>
 80014cc:	68fb      	ldr	r3, [r7, #12]
 80014ce:	681b      	ldr	r3, [r3, #0]
 80014d0:	695b      	ldr	r3, [r3, #20]
 80014d2:	43da      	mvns	r2, r3
 80014d4:	68bb      	ldr	r3, [r7, #8]
 80014d6:	4013      	ands	r3, r2
 80014d8:	b29b      	uxth	r3, r3
 80014da:	2b00      	cmp	r3, #0
 80014dc:	bf14      	ite	ne
 80014de:	2301      	movne	r3, #1
 80014e0:	2300      	moveq	r3, #0
 80014e2:	b2db      	uxtb	r3, r3
 80014e4:	e00b      	b.n	80014fe <I2C_WaitOnMasterAddressFlagUntilTimeout+0xc2>
 80014e6:	68fb      	ldr	r3, [r7, #12]
 80014e8:	681b      	ldr	r3, [r3, #0]
 80014ea:	699b      	ldr	r3, [r3, #24]
 80014ec:	43da      	mvns	r2, r3
 80014ee:	68bb      	ldr	r3, [r7, #8]
 80014f0:	4013      	ands	r3, r2
 80014f2:	b29b      	uxth	r3, r3
 80014f4:	2b00      	cmp	r3, #0
 80014f6:	bf14      	ite	ne
 80014f8:	2301      	movne	r3, #1
 80014fa:	2300      	moveq	r3, #0
 80014fc:	b2db      	uxtb	r3, r3
 80014fe:	2b00      	cmp	r3, #0
 8001500:	d016      	beq.n	8001530 <I2C_WaitOnMasterAddressFlagUntilTimeout+0xf4>
 8001502:	68fb      	ldr	r3, [r7, #12]
 8001504:	2200      	movs	r2, #0
 8001506:	631a      	str	r2, [r3, #48]	@ 0x30
 8001508:	68fb      	ldr	r3, [r7, #12]
 800150a:	2220      	movs	r2, #32
 800150c:	f883 203d 	strb.w	r2, [r3, #61]	@ 0x3d
 8001510:	68fb      	ldr	r3, [r7, #12]
 8001512:	2200      	movs	r2, #0
 8001514:	f883 203e 	strb.w	r2, [r3, #62]	@ 0x3e
 8001518:	68fb      	ldr	r3, [r7, #12]
 800151a:	6c1b      	ldr	r3, [r3, #64]	@ 0x40
 800151c:	f043 0220 	orr.w	r2, r3, #32
 8001520:	68fb      	ldr	r3, [r7, #12]
 8001522:	641a      	str	r2, [r3, #64]	@ 0x40
 8001524:	68fb      	ldr	r3, [r7, #12]
 8001526:	2200      	movs	r2, #0
 8001528:	f883 203c 	strb.w	r2, [r3, #60]	@ 0x3c
 800152c:	2301      	movs	r3, #1
 800152e:	e021      	b.n	8001574 <I2C_WaitOnMasterAddressFlagUntilTimeout+0x138>
 8001530:	68bb      	ldr	r3, [r7, #8]
 8001532:	0c1b      	lsrs	r3, r3, #16
 8001534:	b2db      	uxtb	r3, r3
 8001536:	2b01      	cmp	r3, #1
 8001538:	d10c      	bne.n	8001554 <I2C_WaitOnMasterAddressFlagUntilTimeout+0x118>
 800153a:	68fb      	ldr	r3, [r7, #12]
 800153c:	681b      	ldr	r3, [r3, #0]
 800153e:	695b      	ldr	r3, [r3, #20]
 8001540:	43da      	mvns	r2, r3
 8001542:	68bb      	ldr	r3, [r7, #8]
 8001544:	4013      	ands	r3, r2
 8001546:	b29b      	uxth	r3, r3
 8001548:	2b00      	cmp	r3, #0
 800154a:	bf14      	ite	ne
 800154c:	2301      	movne	r3, #1
 800154e:	2300      	moveq	r3, #0
 8001550:	b2db      	uxtb	r3, r3
 8001552:	e00b      	b.n	800156c <I2C_WaitOnMasterAddressFlagUntilTimeout+0x130>
 8001554:	68fb      	ldr	r3, [r7, #12]
 8001556:	681b      	ldr	r3, [r3, #0]
 8001558:	699b      	ldr	r3, [r3, #24]
 800155a:	43da      	mvns	r2, r3
 800155c:	68bb      	ldr	r3, [r7, #8]
 800155e:	4013      	ands	r3, r2
 8001560:	b29b      	uxth	r3, r3
 8001562:	2b00      	cmp	r3, #0
 8001564:	bf14      	ite	ne
 8001566:	2301      	movne	r3, #1
 8001568:	2300      	moveq	r3, #0
 800156a:	b2db      	uxtb	r3, r3
 800156c:	2b00      	cmp	r3, #0
 800156e:	f47f af6d 	bne.w	800144c <I2C_WaitOnMasterAddressFlagUntilTimeout+0x10>
 8001572:	2300      	movs	r3, #0
 8001574:	4618      	mov	r0, r3
 8001576:	3710      	adds	r7, #16
 8001578:	46bd      	mov	sp, r7
 800157a:	bd80      	pop	{r7, pc}

0800157c <I2C_WaitOnTXEFlagUntilTimeout>:
 800157c:	b580      	push	{r7, lr}
 800157e:	b084      	sub	sp, #16
 8001580:	af00      	add	r7, sp, #0
 8001582:	60f8      	str	r0, [r7, #12]
 8001584:	60b9      	str	r1, [r7, #8]
 8001586:	607a      	str	r2, [r7, #4]
 8001588:	e034      	b.n	80015f4 <I2C_WaitOnTXEFlagUntilTimeout+0x78>
 800158a:	68f8      	ldr	r0, [r7, #12]
 800158c:	f000 f886 	bl	800169c <I2C_IsAcknowledgeFailed>
 8001590:	4603      	mov	r3, r0
 8001592:	2b00      	cmp	r3, #0
 8001594:	d001      	beq.n	800159a <I2C_WaitOnTXEFlagUntilTimeout+0x1e>
 8001596:	2301      	movs	r3, #1
 8001598:	e034      	b.n	8001604 <I2C_WaitOnTXEFlagUntilTimeout+0x88>
 800159a:	68bb      	ldr	r3, [r7, #8]
 800159c:	f1b3 3fff 	cmp.w	r3, #4294967295
 80015a0:	d028      	beq.n	80015f4 <I2C_WaitOnTXEFlagUntilTimeout+0x78>
 80015a2:	f7ff f95f 	bl	8000864 <HAL_GetTick>
 80015a6:	4602      	mov	r2, r0
 80015a8:	687b      	ldr	r3, [r7, #4]
 80015aa:	1ad3      	subs	r3, r2, r3
 80015ac:	68ba      	ldr	r2, [r7, #8]
 80015ae:	429a      	cmp	r2, r3
 80015b0:	d302      	bcc.n	80015b8 <I2C_WaitOnTXEFlagUntilTimeout+0x3c>
 80015b2:	68bb      	ldr	r3, [r7, #8]
 80015b4:	2b00      	cmp	r3, #0
 80015b6:	d11d      	bne.n	80015f4 <I2C_WaitOnTXEFlagUntilTimeout+0x78>
 80015b8:	68fb      	ldr	r3, [r7, #12]
 80015ba:	681b      	ldr	r3, [r3, #0]
 80015bc:	695b      	ldr	r3, [r3, #20]
 80015be:	f003 0380 	and.w	r3, r3, #128	@ 0x80
 80015c2:	2b80      	cmp	r3, #128	@ 0x80
 80015c4:	d016      	beq.n	80015f4 <I2C_WaitOnTXEFlagUntilTimeout+0x78>
 80015c6:	68fb      	ldr	r3, [r7, #12]
 80015c8:	2200      	movs	r2, #0
 80015ca:	631a      	str	r2, [r3, #48]	@ 0x30
 80015cc:	68fb      	ldr	r3, [r7, #12]
 80015ce:	2220      	movs	r2, #32
 80015d0:	f883 203d 	strb.w	r2, [r3, #61]	@ 0x3d
 80015d4:	68fb      	ldr	r3, [r7, #12]
 80015d6:	2200      	movs	r2, #0
 80015d8:	f883 203e 	strb.w	r2, [r3, #62]	@ 0x3e
 80015dc:	68fb      	ldr	r3, [r7, #12]
 80015de:	6c1b      	ldr	r3, [r3, #64]	@ 0x40
 80015e0:	f043 0220 	orr.w	r2, r3, #32
 80015e4:	68fb      	ldr	r3, [r7, #12]
 80015e6:	641a      	str	r2, [r3, #64]	@ 0x40
 80015e8:	68fb      	ldr	r3, [r7, #12]
 80015ea:	2200      	movs	r2, #0
 80015ec:	f883 203c 	strb.w	r2, [r3, #60]	@ 0x3c
 80015f0:	2301      	movs	r3, #1
 80015f2:	e007      	b.n	8001604 <I2C_WaitOnTXEFlagUntilTimeout+0x88>
 80015f4:	68fb      	ldr	r3, [r7, #12]
 80015f6:	681b      	ldr	r3, [r3, #0]
 80015f8:	695b      	ldr	r3, [r3, #20]
 80015fa:	f003 0380 	and.w	r3, r3, #128	@ 0x80
 80015fe:	2b80      	cmp	r3, #128	@ 0x80
 8001600:	d1c3      	bne.n	800158a <I2C_WaitOnTXEFlagUntilTimeout+0xe>
 8001602:	2300      	movs	r3, #0
 8001604:	4618      	mov	r0, r3
 8001606:	3710      	adds	r7, #16
 8001608:	46bd      	mov	sp, r7
 800160a:	bd80      	pop	{r7, pc}

0800160c <I2C_WaitOnBTFFlagUntilTimeout>:
 800160c:	b580      	push	{r7, lr}
 800160e:	b084      	sub	sp, #16
 8001610:	af00      	add	r7, sp, #0
 8001612:	60f8      	str	r0, [r7, #12]
 8001614:	60b9      	str	r1, [r7, #8]
 8001616:	607a      	str	r2, [r7, #4]
 8001618:	e034      	b.n	8001684 <I2C_WaitOnBTFFlagUntilTimeout+0x78>
 800161a:	68f8      	ldr	r0, [r7, #12]
 800161c:	f000 f83e 	bl	800169c <I2C_IsAcknowledgeFailed>
 8001620:	4603      	mov	r3, r0
 8001622:	2b00      	cmp	r3, #0
 8001624:	d001      	beq.n	800162a <I2C_WaitOnBTFFlagUntilTimeout+0x1e>
 8001626:	2301      	movs	r3, #1
 8001628:	e034      	b.n	8001694 <I2C_WaitOnBTFFlagUntilTimeout+0x88>
 800162a:	68bb      	ldr	r3, [r7, #8]
 800162c:	f1b3 3fff 	cmp.w	r3, #4294967295
 8001630:	d028      	beq.n	8001684 <I2C_WaitOnBTFFlagUntilTimeout+0x78>
 8001632:	f7ff f917 	bl	8000864 <HAL_GetTick>
 8001636:	4602      	mov	r2, r0
 8001638:	687b      	ldr	r3, [r7, #4]
 800163a:	1ad3      	subs	r3, r2, r3
 800163c:	68ba      	ldr	r2, [r7, #8]
 800163e:	429a      	cmp	r2, r3
 8001640:	d302      	bcc.n	8001648 <I2C_WaitOnBTFFlagUntilTimeout+0x3c>
 8001642:	68bb      	ldr	r3, [r7, #8]
 8001644:	2b00      	cmp	r3, #0
 8001646:	d11d      	bne.n	8001684 <I2C_WaitOnBTFFlagUntilTimeout+0x78>
 8001648:	68fb      	ldr	r3, [r7, #12]
 800164a:	681b      	ldr	r3, [r3, #0]
 800164c:	695b      	ldr	r3, [r3, #20]
 800164e:	f003 0304 	and.w	r3, r3, #4
 8001652:	2b04      	cmp	r3, #4
 8001654:	d016      	beq.n	8001684 <I2C_WaitOnBTFFlagUntilTimeout+0x78>
 8001656:	68fb      	ldr	r3, [r7, #12]
 8001658:	2200      	movs	r2, #0
 800165a:	631a      	str	r2, [r3, #48]	@ 0x30
 800165c:	68fb      	ldr	r3, [r7, #12]
 800165e:	2220      	movs	r2, #32
 8001660:	f883 203d 	strb.w	r2, [r3, #61]	@ 0x3d
 8001664:	68fb      	ldr	r3, [r7, #12]
 8001666:	2200      	movs	r2, #0
 8001668:	f883 203e 	strb.w	r2, [r3, #62]	@ 0x3e
 800166c:	68fb      	ldr	r3, [r7, #12]
 800166e:	6c1b      	ldr	r3, [r3, #64]	@ 0x40
 8001670:	f043 0220 	orr.w	r2, r3, #32
 8001674:	68fb      	ldr	r3, [r7, #12]
 8001676:	641a      	str	r2, [r3, #64]	@ 0x40
 8001678:	68fb      	ldr	r3, [r7, #12]
 800167a:	2200      	movs	r2, #0
 800167c:	f883 203c 	strb.w	r2, [r3, #60]	@ 0x3c
 8001680:	2301      	movs	r3, #1
 8001682:	e007      	b.n	8001694 <I2C_WaitOnBTFFlagUntilTimeout+0x88>
 8001684:	68fb      	ldr	r3, [r7, #12]
 8001686:	681b      	ldr	r3, [r3, #0]
 8001688:	695b      	ldr	r3, [r3, #20]
 800168a:	f003 0304 	and.w	r3, r3, #4
 800168e:	2b04      	cmp	r3, #4
 8001690:	d1c3      	bne.n	800161a <I2C_WaitOnBTFFlagUntilTimeout+0xe>
 8001692:	2300      	movs	r3, #0
 8001694:	4618      	mov	r0, r3
 8001696:	3710      	adds	r7, #16
 8001698:	46bd      	mov	sp, r7
 800169a:	bd80      	pop	{r7, pc}

0800169c <I2C_IsAcknowledgeFailed>:
 800169c:	b480      	push	{r7}
 800169e:	b083      	sub	sp, #12
 80016a0:	af00      	add	r7, sp, #0
 80016a2:	6078      	str	r0, [r7, #4]
 80016a4:	687b      	ldr	r3, [r7, #4]
 80016a6:	681b      	ldr	r3, [r3, #0]
 80016a8:	695b      	ldr	r3, [r3, #20]
 80016aa:	f403 6380 	and.w	r3, r3, #1024	@ 0x400
 80016ae:	f5b3 6f80 	cmp.w	r3, #1024	@ 0x400
 80016b2:	d11b      	bne.n	80016ec <I2C_IsAcknowledgeFailed+0x50>
 80016b4:	687b      	ldr	r3, [r7, #4]
 80016b6:	681b      	ldr	r3, [r3, #0]
 80016b8:	f46f 6280 	mvn.w	r2, #1024	@ 0x400
 80016bc:	615a      	str	r2, [r3, #20]
 80016be:	687b      	ldr	r3, [r7, #4]
 80016c0:	2200      	movs	r2, #0
 80016c2:	631a      	str	r2, [r3, #48]	@ 0x30
 80016c4:	687b      	ldr	r3, [r7, #4]
 80016c6:	2220      	movs	r2, #32
 80016c8:	f883 203d 	strb.w	r2, [r3, #61]	@ 0x3d
 80016cc:	687b      	ldr	r3, [r7, #4]
 80016ce:	2200      	movs	r2, #0
 80016d0:	f883 203e 	strb.w	r2, [r3, #62]	@ 0x3e
 80016d4:	687b      	ldr	r3, [r7, #4]
 80016d6:	6c1b      	ldr	r3, [r3, #64]	@ 0x40
 80016d8:	f043 0204 	orr.w	r2, r3, #4
 80016dc:	687b      	ldr	r3, [r7, #4]
 80016de:	641a      	str	r2, [r3, #64]	@ 0x40
 80016e0:	687b      	ldr	r3, [r7, #4]
 80016e2:	2200      	movs	r2, #0
 80016e4:	f883 203c 	strb.w	r2, [r3, #60]	@ 0x3c
 80016e8:	2301      	movs	r3, #1
 80016ea:	e000      	b.n	80016ee <I2C_IsAcknowledgeFailed+0x52>
 80016ec:	2300      	movs	r3, #0
 80016ee:	4618      	mov	r0, r3
 80016f0:	370c      	adds	r7, #12
 80016f2:	46bd      	mov	sp, r7
 80016f4:	bc80      	pop	{r7}
 80016f6:	4770      	bx	lr

080016f8 <HAL_RCC_OscConfig>:
 80016f8:	b580      	push	{r7, lr}
 80016fa:	b086      	sub	sp, #24
 80016fc:	af00      	add	r7, sp, #0
 80016fe:	6078      	str	r0, [r7, #4]
 8001700:	687b      	ldr	r3, [r7, #4]
 8001702:	2b00      	cmp	r3, #0
 8001704:	d101      	bne.n	800170a <HAL_RCC_OscConfig+0x12>
 8001706:	2301      	movs	r3, #1
 8001708:	e272      	b.n	8001bf0 <HAL_RCC_OscConfig+0x4f8>
 800170a:	687b      	ldr	r3, [r7, #4]
 800170c:	681b      	ldr	r3, [r3, #0]
 800170e:	f003 0301 	and.w	r3, r3, #1
 8001712:	2b00      	cmp	r3, #0
 8001714:	f000 8087 	beq.w	8001826 <HAL_RCC_OscConfig+0x12e>
 8001718:	4b92      	ldr	r3, [pc, #584]	@ (8001964 <HAL_RCC_OscConfig+0x26c>)
 800171a:	685b      	ldr	r3, [r3, #4]
 800171c:	f003 030c 	and.w	r3, r3, #12
 8001720:	2b04      	cmp	r3, #4
 8001722:	d00c      	beq.n	800173e <HAL_RCC_OscConfig+0x46>
 8001724:	4b8f      	ldr	r3, [pc, #572]	@ (8001964 <HAL_RCC_OscConfig+0x26c>)
 8001726:	685b      	ldr	r3, [r3, #4]
 8001728:	f003 030c 	and.w	r3, r3, #12
 800172c:	2b08      	cmp	r3, #8
 800172e:	d112      	bne.n	8001756 <HAL_RCC_OscConfig+0x5e>
 8001730:	4b8c      	ldr	r3, [pc, #560]	@ (8001964 <HAL_RCC_OscConfig+0x26c>)
 8001732:	685b      	ldr	r3, [r3, #4]
 8001734:	f403 3380 	and.w	r3, r3, #65536	@ 0x10000
 8001738:	f5b3 3f80 	cmp.w	r3, #65536	@ 0x10000
 800173c:	d10b      	bne.n	8001756 <HAL_RCC_OscConfig+0x5e>
 800173e:	4b89      	ldr	r3, [pc, #548]	@ (8001964 <HAL_RCC_OscConfig+0x26c>)
 8001740:	681b      	ldr	r3, [r3, #0]
 8001742:	f403 3300 	and.w	r3, r3, #131072	@ 0x20000
 8001746:	2b00      	cmp	r3, #0
 8001748:	d06c      	beq.n	8001824 <HAL_RCC_OscConfig+0x12c>
 800174a:	687b      	ldr	r3, [r7, #4]
 800174c:	685b      	ldr	r3, [r3, #4]
 800174e:	2b00      	cmp	r3, #0
 8001750:	d168      	bne.n	8001824 <HAL_RCC_OscConfig+0x12c>
 8001752:	2301      	movs	r3, #1
 8001754:	e24c      	b.n	8001bf0 <HAL_RCC_OscConfig+0x4f8>
 8001756:	687b      	ldr	r3, [r7, #4]
 8001758:	685b      	ldr	r3, [r3, #4]
 800175a:	f5b3 3f80 	cmp.w	r3, #65536	@ 0x10000
 800175e:	d106      	bne.n	800176e <HAL_RCC_OscConfig+0x76>
 8001760:	4b80      	ldr	r3, [pc, #512]	@ (8001964 <HAL_RCC_OscConfig+0x26c>)
 8001762:	681b      	ldr	r3, [r3, #0]
 8001764:	4a7f      	ldr	r2, [pc, #508]	@ (8001964 <HAL_RCC_OscConfig+0x26c>)
 8001766:	f443 3380 	orr.w	r3, r3, #65536	@ 0x10000
 800176a:	6013      	str	r3, [r2, #0]
 800176c:	e02e      	b.n	80017cc <HAL_RCC_OscConfig+0xd4>
 800176e:	687b      	ldr	r3, [r7, #4]
 8001770:	685b      	ldr	r3, [r3, #4]
 8001772:	2b00      	cmp	r3, #0
 8001774:	d10c      	bne.n	8001790 <HAL_RCC_OscConfig+0x98>
 8001776:	4b7b      	ldr	r3, [pc, #492]	@ (8001964 <HAL_RCC_OscConfig+0x26c>)
 8001778:	681b      	ldr	r3, [r3, #0]
 800177a:	4a7a      	ldr	r2, [pc, #488]	@ (8001964 <HAL_RCC_OscConfig+0x26c>)
 800177c:	f423 3380 	bic.w	r3, r3, #65536	@ 0x10000
 8001780:	6013      	str	r3, [r2, #0]
 8001782:	4b78      	ldr	r3, [pc, #480]	@ (8001964 <HAL_RCC_OscConfig+0x26c>)
 8001784:	681b      	ldr	r3, [r3, #0]
 8001786:	4a77      	ldr	r2, [pc, #476]	@ (8001964 <HAL_RCC_OscConfig+0x26c>)
 8001788:	f423 2380 	bic.w	r3, r3, #262144	@ 0x40000
 800178c:	6013      	str	r3, [r2, #0]
 800178e:	e01d      	b.n	80017cc <HAL_RCC_OscConfig+0xd4>
 8001790:	687b      	ldr	r3, [r7, #4]
 8001792:	685b      	ldr	r3, [r3, #4]
 8001794:	f5b3 2fa0 	cmp.w	r3, #327680	@ 0x50000
 8001798:	d10c      	bne.n	80017b4 <HAL_RCC_OscConfig+0xbc>
 800179a:	4b72      	ldr	r3, [pc, #456]	@ (8001964 <HAL_RCC_OscConfig+0x26c>)
 800179c:	681b      	ldr	r3, [r3, #0]
 800179e:	4a71      	ldr	r2, [pc, #452]	@ (8001964 <HAL_RCC_OscConfig+0x26c>)
 80017a0:	f443 2380 	orr.w	r3, r3, #262144	@ 0x40000
 80017a4:	6013      	str	r3, [r2, #0]
 80017a6:	4b6f      	ldr	r3, [pc, #444]	@ (8001964 <HAL_RCC_OscConfig+0x26c>)
 80017a8:	681b      	ldr	r3, [r3, #0]
 80017aa:	4a6e      	ldr	r2, [pc, #440]	@ (8001964 <HAL_RCC_OscConfig+0x26c>)
 80017ac:	f443 3380 	orr.w	r3, r3, #65536	@ 0x10000
 80017b0:	6013      	str	r3, [r2, #0]
 80017b2:	e00b      	b.n	80017cc <HAL_RCC_OscConfig+0xd4>
 80017b4:	4b6b      	ldr	r3, [pc, #428]	@ (8001964 <HAL_RCC_OscConfig+0x26c>)
 80017b6:	681b      	ldr	r3, [r3, #0]
 80017b8:	4a6a      	ldr	r2, [pc, #424]	@ (8001964 <HAL_RCC_OscConfig+0x26c>)
 80017ba:	f423 3380 	bic.w	r3, r3, #65536	@ 0x10000
 80017be:	6013      	str	r3, [r2, #0]
 80017c0:	4b68      	ldr	r3, [pc, #416]	@ (8001964 <HAL_RCC_OscConfig+0x26c>)
 80017c2:	681b      	ldr	r3, [r3, #0]
 80017c4:	4a67      	ldr	r2, [pc, #412]	@ (8001964 <HAL_RCC_OscConfig+0x26c>)
 80017c6:	f423 2380 	bic.w	r3, r3, #262144	@ 0x40000
 80017ca:	6013      	str	r3, [r2, #0]
 80017cc:	687b      	ldr	r3, [r7, #4]
 80017ce:	685b      	ldr	r3, [r3, #4]
 80017d0:	2b00      	cmp	r3, #0
 80017d2:	d013      	beq.n	80017fc <HAL_RCC_OscConfig+0x104>
 80017d4:	f7ff f846 	bl	8000864 <HAL_GetTick>
 80017d8:	6138      	str	r0, [r7, #16]
 80017da:	e008      	b.n	80017ee <HAL_RCC_OscConfig+0xf6>
 80017dc:	f7ff f842 	bl	8000864 <HAL_GetTick>
 80017e0:	4602      	mov	r2, r0
 80017e2:	693b      	ldr	r3, [r7, #16]
 80017e4:	1ad3      	subs	r3, r2, r3
 80017e6:	2b64      	cmp	r3, #100	@ 0x64
 80017e8:	d901      	bls.n	80017ee <HAL_RCC_OscConfig+0xf6>
 80017ea:	2303      	movs	r3, #3
 80017ec:	e200      	b.n	8001bf0 <HAL_RCC_OscConfig+0x4f8>
 80017ee:	4b5d      	ldr	r3, [pc, #372]	@ (8001964 <HAL_RCC_OscConfig+0x26c>)
 80017f0:	681b      	ldr	r3, [r3, #0]
 80017f2:	f403 3300 	and.w	r3, r3, #131072	@ 0x20000
 80017f6:	2b00      	cmp	r3, #0
 80017f8:	d0f0      	beq.n	80017dc <HAL_RCC_OscConfig+0xe4>
 80017fa:	e014      	b.n	8001826 <HAL_RCC_OscConfig+0x12e>
 80017fc:	f7ff f832 	bl	8000864 <HAL_GetTick>
 8001800:	6138      	str	r0, [r7, #16]
 8001802:	e008      	b.n	8001816 <HAL_RCC_OscConfig+0x11e>
 8001804:	f7ff f82e 	bl	8000864 <HAL_GetTick>
 8001808:	4602      	mov	r2, r0
 800180a:	693b      	ldr	r3, [r7, #16]
 800180c:	1ad3      	subs	r3, r2, r3
 800180e:	2b64      	cmp	r3, #100	@ 0x64
 8001810:	d901      	bls.n	8001816 <HAL_RCC_OscConfig+0x11e>
 8001812:	2303      	movs	r3, #3
 8001814:	e1ec      	b.n	8001bf0 <HAL_RCC_OscConfig+0x4f8>
 8001816:	4b53      	ldr	r3, [pc, #332]	@ (8001964 <HAL_RCC_OscConfig+0x26c>)
 8001818:	681b      	ldr	r3, [r3, #0]
 800181a:	f403 3300 	and.w	r3, r3, #131072	@ 0x20000
 800181e:	2b00      	cmp	r3, #0
 8001820:	d1f0      	bne.n	8001804 <HAL_RCC_OscConfig+0x10c>
 8001822:	e000      	b.n	8001826 <HAL_RCC_OscConfig+0x12e>
 8001824:	bf00      	nop
 8001826:	687b      	ldr	r3, [r7, #4]
 8001828:	681b      	ldr	r3, [r3, #0]
 800182a:	f003 0302 	and.w	r3, r3, #2
 800182e:	2b00      	cmp	r3, #0
 8001830:	d063      	beq.n	80018fa <HAL_RCC_OscConfig+0x202>
 8001832:	4b4c      	ldr	r3, [pc, #304]	@ (8001964 <HAL_RCC_OscConfig+0x26c>)
 8001834:	685b      	ldr	r3, [r3, #4]
 8001836:	f003 030c 	and.w	r3, r3, #12
 800183a:	2b00      	cmp	r3, #0
 800183c:	d00b      	beq.n	8001856 <HAL_RCC_OscConfig+0x15e>
 800183e:	4b49      	ldr	r3, [pc, #292]	@ (8001964 <HAL_RCC_OscConfig+0x26c>)
 8001840:	685b      	ldr	r3, [r3, #4]
 8001842:	f003 030c 	and.w	r3, r3, #12
 8001846:	2b08      	cmp	r3, #8
 8001848:	d11c      	bne.n	8001884 <HAL_RCC_OscConfig+0x18c>
 800184a:	4b46      	ldr	r3, [pc, #280]	@ (8001964 <HAL_RCC_OscConfig+0x26c>)
 800184c:	685b      	ldr	r3, [r3, #4]
 800184e:	f403 3380 	and.w	r3, r3, #65536	@ 0x10000
 8001852:	2b00      	cmp	r3, #0
 8001854:	d116      	bne.n	8001884 <HAL_RCC_OscConfig+0x18c>
 8001856:	4b43      	ldr	r3, [pc, #268]	@ (8001964 <HAL_RCC_OscConfig+0x26c>)
 8001858:	681b      	ldr	r3, [r3, #0]
 800185a:	f003 0302 	and.w	r3, r3, #2
 800185e:	2b00      	cmp	r3, #0
 8001860:	d005      	beq.n	800186e <HAL_RCC_OscConfig+0x176>
 8001862:	687b      	ldr	r3, [r7, #4]
 8001864:	691b      	ldr	r3, [r3, #16]
 8001866:	2b01      	cmp	r3, #1
 8001868:	d001      	beq.n	800186e <HAL_RCC_OscConfig+0x176>
 800186a:	2301      	movs	r3, #1
 800186c:	e1c0      	b.n	8001bf0 <HAL_RCC_OscConfig+0x4f8>
 800186e:	4b3d      	ldr	r3, [pc, #244]	@ (8001964 <HAL_RCC_OscConfig+0x26c>)
 8001870:	681b      	ldr	r3, [r3, #0]
 8001872:	f023 02f8 	bic.w	r2, r3, #248	@ 0xf8
 8001876:	687b      	ldr	r3, [r7, #4]
 8001878:	695b      	ldr	r3, [r3, #20]
 800187a:	00db      	lsls	r3, r3, #3
 800187c:	4939      	ldr	r1, [pc, #228]	@ (8001964 <HAL_RCC_OscConfig+0x26c>)
 800187e:	4313      	orrs	r3, r2
 8001880:	600b      	str	r3, [r1, #0]
 8001882:	e03a      	b.n	80018fa <HAL_RCC_OscConfig+0x202>
 8001884:	687b      	ldr	r3, [r7, #4]
 8001886:	691b      	ldr	r3, [r3, #16]
 8001888:	2b00      	cmp	r3, #0
 800188a:	d020      	beq.n	80018ce <HAL_RCC_OscConfig+0x1d6>
 800188c:	4b36      	ldr	r3, [pc, #216]	@ (8001968 <HAL_RCC_OscConfig+0x270>)
 800188e:	2201      	movs	r2, #1
 8001890:	601a      	str	r2, [r3, #0]
 8001892:	f7fe ffe7 	bl	8000864 <HAL_GetTick>
 8001896:	6138      	str	r0, [r7, #16]
 8001898:	e008      	b.n	80018ac <HAL_RCC_OscConfig+0x1b4>
 800189a:	f7fe ffe3 	bl	8000864 <HAL_GetTick>
 800189e:	4602      	mov	r2, r0
 80018a0:	693b      	ldr	r3, [r7, #16]
 80018a2:	1ad3      	subs	r3, r2, r3
 80018a4:	2b02      	cmp	r3, #2
 80018a6:	d901      	bls.n	80018ac <HAL_RCC_OscConfig+0x1b4>
 80018a8:	2303      	movs	r3, #3
 80018aa:	e1a1      	b.n	8001bf0 <HAL_RCC_OscConfig+0x4f8>
 80018ac:	4b2d      	ldr	r3, [pc, #180]	@ (8001964 <HAL_RCC_OscConfig+0x26c>)
 80018ae:	681b      	ldr	r3, [r3, #0]
 80018b0:	f003 0302 	and.w	r3, r3, #2
 80018b4:	2b00      	cmp	r3, #0
 80018b6:	d0f0      	beq.n	800189a <HAL_RCC_OscConfig+0x1a2>
 80018b8:	4b2a      	ldr	r3, [pc, #168]	@ (8001964 <HAL_RCC_OscConfig+0x26c>)
 80018ba:	681b      	ldr	r3, [r3, #0]
 80018bc:	f023 02f8 	bic.w	r2, r3, #248	@ 0xf8
 80018c0:	687b      	ldr	r3, [r7, #4]
 80018c2:	695b      	ldr	r3, [r3, #20]
 80018c4:	00db      	lsls	r3, r3, #3
 80018c6:	4927      	ldr	r1, [pc, #156]	@ (8001964 <HAL_RCC_OscConfig+0x26c>)
 80018c8:	4313      	orrs	r3, r2
 80018ca:	600b      	str	r3, [r1, #0]
 80018cc:	e015      	b.n	80018fa <HAL_RCC_OscConfig+0x202>
 80018ce:	4b26      	ldr	r3, [pc, #152]	@ (8001968 <HAL_RCC_OscConfig+0x270>)
 80018d0:	2200      	movs	r2, #0
 80018d2:	601a      	str	r2, [r3, #0]
 80018d4:	f7fe ffc6 	bl	8000864 <HAL_GetTick>
 80018d8:	6138      	str	r0, [r7, #16]
 80018da:	e008      	b.n	80018ee <HAL_RCC_OscConfig+0x1f6>
 80018dc:	f7fe ffc2 	bl	8000864 <HAL_GetTick>
 80018e0:	4602      	mov	r2, r0
 80018e2:	693b      	ldr	r3, [r7, #16]
 80018e4:	1ad3      	subs	r3, r2, r3
 80018e6:	2b02      	cmp	r3, #2
 80018e8:	d901      	bls.n	80018ee <HAL_RCC_OscConfig+0x1f6>
 80018ea:	2303      	movs	r3, #3
 80018ec:	e180      	b.n	8001bf0 <HAL_RCC_OscConfig+0x4f8>
 80018ee:	4b1d      	ldr	r3, [pc, #116]	@ (8001964 <HAL_RCC_OscConfig+0x26c>)
 80018f0:	681b      	ldr	r3, [r3, #0]
 80018f2:	f003 0302 	and.w	r3, r3, #2
 80018f6:	2b00      	cmp	r3, #0
 80018f8:	d1f0      	bne.n	80018dc <HAL_RCC_OscConfig+0x1e4>
 80018fa:	687b      	ldr	r3, [r7, #4]
 80018fc:	681b      	ldr	r3, [r3, #0]
 80018fe:	f003 0308 	and.w	r3, r3, #8
 8001902:	2b00      	cmp	r3, #0
 8001904:	d03a      	beq.n	800197c <HAL_RCC_OscConfig+0x284>
 8001906:	687b      	ldr	r3, [r7, #4]
 8001908:	699b      	ldr	r3, [r3, #24]
 800190a:	2b00      	cmp	r3, #0
 800190c:	d019      	beq.n	8001942 <HAL_RCC_OscConfig+0x24a>
 800190e:	4b17      	ldr	r3, [pc, #92]	@ (800196c <HAL_RCC_OscConfig+0x274>)
 8001910:	2201      	movs	r2, #1
 8001912:	601a      	str	r2, [r3, #0]
 8001914:	f7fe ffa6 	bl	8000864 <HAL_GetTick>
 8001918:	6138      	str	r0, [r7, #16]
 800191a:	e008      	b.n	800192e <HAL_RCC_OscConfig+0x236>
 800191c:	f7fe ffa2 	bl	8000864 <HAL_GetTick>
 8001920:	4602      	mov	r2, r0
 8001922:	693b      	ldr	r3, [r7, #16]
 8001924:	1ad3      	subs	r3, r2, r3
 8001926:	2b02      	cmp	r3, #2
 8001928:	d901      	bls.n	800192e <HAL_RCC_OscConfig+0x236>
 800192a:	2303      	movs	r3, #3
 800192c:	e160      	b.n	8001bf0 <HAL_RCC_OscConfig+0x4f8>
 800192e:	4b0d      	ldr	r3, [pc, #52]	@ (8001964 <HAL_RCC_OscConfig+0x26c>)
 8001930:	6a5b      	ldr	r3, [r3, #36]	@ 0x24
 8001932:	f003 0302 	and.w	r3, r3, #2
 8001936:	2b00      	cmp	r3, #0
 8001938:	d0f0      	beq.n	800191c <HAL_RCC_OscConfig+0x224>
 800193a:	2001      	movs	r0, #1
 800193c:	f000 faba 	bl	8001eb4 <RCC_Delay>
 8001940:	e01c      	b.n	800197c <HAL_RCC_OscConfig+0x284>
 8001942:	4b0a      	ldr	r3, [pc, #40]	@ (800196c <HAL_RCC_OscConfig+0x274>)
 8001944:	2200      	movs	r2, #0
 8001946:	601a      	str	r2, [r3, #0]
 8001948:	f7fe ff8c 	bl	8000864 <HAL_GetTick>
 800194c:	6138      	str	r0, [r7, #16]
 800194e:	e00f      	b.n	8001970 <HAL_RCC_OscConfig+0x278>
 8001950:	f7fe ff88 	bl	8000864 <HAL_GetTick>
 8001954:	4602      	mov	r2, r0
 8001956:	693b      	ldr	r3, [r7, #16]
 8001958:	1ad3      	subs	r3, r2, r3
 800195a:	2b02      	cmp	r3, #2
 800195c:	d908      	bls.n	8001970 <HAL_RCC_OscConfig+0x278>
 800195e:	2303      	movs	r3, #3
 8001960:	e146      	b.n	8001bf0 <HAL_RCC_OscConfig+0x4f8>
 8001962:	bf00      	nop
 8001964:	40021000 	.word	0x40021000
 8001968:	42420000 	.word	0x42420000
 800196c:	42420480 	.word	0x42420480
 8001970:	4b92      	ldr	r3, [pc, #584]	@ (8001bbc <HAL_RCC_OscConfig+0x4c4>)
 8001972:	6a5b      	ldr	r3, [r3, #36]	@ 0x24
 8001974:	f003 0302 	and.w	r3, r3, #2
 8001978:	2b00      	cmp	r3, #0
 800197a:	d1e9      	bne.n	8001950 <HAL_RCC_OscConfig+0x258>
 800197c:	687b      	ldr	r3, [r7, #4]
 800197e:	681b      	ldr	r3, [r3, #0]
 8001980:	f003 0304 	and.w	r3, r3, #4
 8001984:	2b00      	cmp	r3, #0
 8001986:	f000 80a6 	beq.w	8001ad6 <HAL_RCC_OscConfig+0x3de>
 800198a:	2300      	movs	r3, #0
 800198c:	75fb      	strb	r3, [r7, #23]
 800198e:	4b8b      	ldr	r3, [pc, #556]	@ (8001bbc <HAL_RCC_OscConfig+0x4c4>)
 8001990:	69db      	ldr	r3, [r3, #28]
 8001992:	f003 5380 	and.w	r3, r3, #268435456	@ 0x10000000
 8001996:	2b00      	cmp	r3, #0
 8001998:	d10d      	bne.n	80019b6 <HAL_RCC_OscConfig+0x2be>
 800199a:	4b88      	ldr	r3, [pc, #544]	@ (8001bbc <HAL_RCC_OscConfig+0x4c4>)
 800199c:	69db      	ldr	r3, [r3, #28]
 800199e:	4a87      	ldr	r2, [pc, #540]	@ (8001bbc <HAL_RCC_OscConfig+0x4c4>)
 80019a0:	f043 5380 	orr.w	r3, r3, #268435456	@ 0x10000000
 80019a4:	61d3      	str	r3, [r2, #28]
 80019a6:	4b85      	ldr	r3, [pc, #532]	@ (8001bbc <HAL_RCC_OscConfig+0x4c4>)
 80019a8:	69db      	ldr	r3, [r3, #28]
 80019aa:	f003 5380 	and.w	r3, r3, #268435456	@ 0x10000000
 80019ae:	60bb      	str	r3, [r7, #8]
 80019b0:	68bb      	ldr	r3, [r7, #8]
 80019b2:	2301      	movs	r3, #1
 80019b4:	75fb      	strb	r3, [r7, #23]
 80019b6:	4b82      	ldr	r3, [pc, #520]	@ (8001bc0 <HAL_RCC_OscConfig+0x4c8>)
 80019b8:	681b      	ldr	r3, [r3, #0]
 80019ba:	f403 7380 	and.w	r3, r3, #256	@ 0x100
 80019be:	2b00      	cmp	r3, #0
 80019c0:	d118      	bne.n	80019f4 <HAL_RCC_OscConfig+0x2fc>
 80019c2:	4b7f      	ldr	r3, [pc, #508]	@ (8001bc0 <HAL_RCC_OscConfig+0x4c8>)
 80019c4:	681b      	ldr	r3, [r3, #0]
 80019c6:	4a7e      	ldr	r2, [pc, #504]	@ (8001bc0 <HAL_RCC_OscConfig+0x4c8>)
 80019c8:	f443 7380 	orr.w	r3, r3, #256	@ 0x100
 80019cc:	6013      	str	r3, [r2, #0]
 80019ce:	f7fe ff49 	bl	8000864 <HAL_GetTick>
 80019d2:	6138      	str	r0, [r7, #16]
 80019d4:	e008      	b.n	80019e8 <HAL_RCC_OscConfig+0x2f0>
 80019d6:	f7fe ff45 	bl	8000864 <HAL_GetTick>
 80019da:	4602      	mov	r2, r0
 80019dc:	693b      	ldr	r3, [r7, #16]
 80019de:	1ad3      	subs	r3, r2, r3
 80019e0:	2b64      	cmp	r3, #100	@ 0x64
 80019e2:	d901      	bls.n	80019e8 <HAL_RCC_OscConfig+0x2f0>
 80019e4:	2303      	movs	r3, #3
 80019e6:	e103      	b.n	8001bf0 <HAL_RCC_OscConfig+0x4f8>
 80019e8:	4b75      	ldr	r3, [pc, #468]	@ (8001bc0 <HAL_RCC_OscConfig+0x4c8>)
 80019ea:	681b      	ldr	r3, [r3, #0]
 80019ec:	f403 7380 	and.w	r3, r3, #256	@ 0x100
 80019f0:	2b00      	cmp	r3, #0
 80019f2:	d0f0      	beq.n	80019d6 <HAL_RCC_OscConfig+0x2de>
 80019f4:	687b      	ldr	r3, [r7, #4]
 80019f6:	68db      	ldr	r3, [r3, #12]
 80019f8:	2b01      	cmp	r3, #1
 80019fa:	d106      	bne.n	8001a0a <HAL_RCC_OscConfig+0x312>
 80019fc:	4b6f      	ldr	r3, [pc, #444]	@ (8001bbc <HAL_RCC_OscConfig+0x4c4>)
 80019fe:	6a1b      	ldr	r3, [r3, #32]
 8001a00:	4a6e      	ldr	r2, [pc, #440]	@ (8001bbc <HAL_RCC_OscConfig+0x4c4>)
 8001a02:	f043 0301 	orr.w	r3, r3, #1
 8001a06:	6213      	str	r3, [r2, #32]
 8001a08:	e02d      	b.n	8001a66 <HAL_RCC_OscConfig+0x36e>
 8001a0a:	687b      	ldr	r3, [r7, #4]
 8001a0c:	68db      	ldr	r3, [r3, #12]
 8001a0e:	2b00      	cmp	r3, #0
 8001a10:	d10c      	bne.n	8001a2c <HAL_RCC_OscConfig+0x334>
 8001a12:	4b6a      	ldr	r3, [pc, #424]	@ (8001bbc <HAL_RCC_OscConfig+0x4c4>)
 8001a14:	6a1b      	ldr	r3, [r3, #32]
 8001a16:	4a69      	ldr	r2, [pc, #420]	@ (8001bbc <HAL_RCC_OscConfig+0x4c4>)
 8001a18:	f023 0301 	bic.w	r3, r3, #1
 8001a1c:	6213      	str	r3, [r2, #32]
 8001a1e:	4b67      	ldr	r3, [pc, #412]	@ (8001bbc <HAL_RCC_OscConfig+0x4c4>)
 8001a20:	6a1b      	ldr	r3, [r3, #32]
 8001a22:	4a66      	ldr	r2, [pc, #408]	@ (8001bbc <HAL_RCC_OscConfig+0x4c4>)
 8001a24:	f023 0304 	bic.w	r3, r3, #4
 8001a28:	6213      	str	r3, [r2, #32]
 8001a2a:	e01c      	b.n	8001a66 <HAL_RCC_OscConfig+0x36e>
 8001a2c:	687b      	ldr	r3, [r7, #4]
 8001a2e:	68db      	ldr	r3, [r3, #12]
 8001a30:	2b05      	cmp	r3, #5
 8001a32:	d10c      	bne.n	8001a4e <HAL_RCC_OscConfig+0x356>
 8001a34:	4b61      	ldr	r3, [pc, #388]	@ (8001bbc <HAL_RCC_OscConfig+0x4c4>)
 8001a36:	6a1b      	ldr	r3, [r3, #32]
 8001a38:	4a60      	ldr	r2, [pc, #384]	@ (8001bbc <HAL_RCC_OscConfig+0x4c4>)
 8001a3a:	f043 0304 	orr.w	r3, r3, #4
 8001a3e:	6213      	str	r3, [r2, #32]
 8001a40:	4b5e      	ldr	r3, [pc, #376]	@ (8001bbc <HAL_RCC_OscConfig+0x4c4>)
 8001a42:	6a1b      	ldr	r3, [r3, #32]
 8001a44:	4a5d      	ldr	r2, [pc, #372]	@ (8001bbc <HAL_RCC_OscConfig+0x4c4>)
 8001a46:	f043 0301 	orr.w	r3, r3, #1
 8001a4a:	6213      	str	r3, [r2, #32]
 8001a4c:	e00b      	b.n	8001a66 <HAL_RCC_OscConfig+0x36e>
 8001a4e:	4b5b      	ldr	r3, [pc, #364]	@ (8001bbc <HAL_RCC_OscConfig+0x4c4>)
 8001a50:	6a1b      	ldr	r3, [r3, #32]
 8001a52:	4a5a      	ldr	r2, [pc, #360]	@ (8001bbc <HAL_RCC_OscConfig+0x4c4>)
 8001a54:	f023 0301 	bic.w	r3, r3, #1
 8001a58:	6213      	str	r3, [r2, #32]
 8001a5a:	4b58      	ldr	r3, [pc, #352]	@ (8001bbc <HAL_RCC_OscConfig+0x4c4>)
 8001a5c:	6a1b      	ldr	r3, [r3, #32]
 8001a5e:	4a57      	ldr	r2, [pc, #348]	@ (8001bbc <HAL_RCC_OscConfig+0x4c4>)
 8001a60:	f023 0304 	bic.w	r3, r3, #4
 8001a64:	6213      	str	r3, [r2, #32]
 8001a66:	687b      	ldr	r3, [r7, #4]
 8001a68:	68db      	ldr	r3, [r3, #12]
 8001a6a:	2b00      	cmp	r3, #0
 8001a6c:	d015      	beq.n	8001a9a <HAL_RCC_OscConfig+0x3a2>
 8001a6e:	f7fe fef9 	bl	8000864 <HAL_GetTick>
 8001a72:	6138      	str	r0, [r7, #16]
 8001a74:	e00a      	b.n	8001a8c <HAL_RCC_OscConfig+0x394>
 8001a76:	f7fe fef5 	bl	8000864 <HAL_GetTick>
 8001a7a:	4602      	mov	r2, r0
 8001a7c:	693b      	ldr	r3, [r7, #16]
 8001a7e:	1ad3      	subs	r3, r2, r3
 8001a80:	f241 3288 	movw	r2, #5000	@ 0x1388
 8001a84:	4293      	cmp	r3, r2
 8001a86:	d901      	bls.n	8001a8c <HAL_RCC_OscConfig+0x394>
 8001a88:	2303      	movs	r3, #3
 8001a8a:	e0b1      	b.n	8001bf0 <HAL_RCC_OscConfig+0x4f8>
 8001a8c:	4b4b      	ldr	r3, [pc, #300]	@ (8001bbc <HAL_RCC_OscConfig+0x4c4>)
 8001a8e:	6a1b      	ldr	r3, [r3, #32]
 8001a90:	f003 0302 	and.w	r3, r3, #2
 8001a94:	2b00      	cmp	r3, #0
 8001a96:	d0ee      	beq.n	8001a76 <HAL_RCC_OscConfig+0x37e>
 8001a98:	e014      	b.n	8001ac4 <HAL_RCC_OscConfig+0x3cc>
 8001a9a:	f7fe fee3 	bl	8000864 <HAL_GetTick>
 8001a9e:	6138      	str	r0, [r7, #16]
 8001aa0:	e00a      	b.n	8001ab8 <HAL_RCC_OscConfig+0x3c0>
 8001aa2:	f7fe fedf 	bl	8000864 <HAL_GetTick>
 8001aa6:	4602      	mov	r2, r0
 8001aa8:	693b      	ldr	r3, [r7, #16]
 8001aaa:	1ad3      	subs	r3, r2, r3
 8001aac:	f241 3288 	movw	r2, #5000	@ 0x1388
 8001ab0:	4293      	cmp	r3, r2
 8001ab2:	d901      	bls.n	8001ab8 <HAL_RCC_OscConfig+0x3c0>
 8001ab4:	2303      	movs	r3, #3
 8001ab6:	e09b      	b.n	8001bf0 <HAL_RCC_OscConfig+0x4f8>
 8001ab8:	4b40      	ldr	r3, [pc, #256]	@ (8001bbc <HAL_RCC_OscConfig+0x4c4>)
 8001aba:	6a1b      	ldr	r3, [r3, #32]
 8001abc:	f003 0302 	and.w	r3, r3, #2
 8001ac0:	2b00      	cmp	r3, #0
 8001ac2:	d1ee      	bne.n	8001aa2 <HAL_RCC_OscConfig+0x3aa>
 8001ac4:	7dfb      	ldrb	r3, [r7, #23]
 8001ac6:	2b01      	cmp	r3, #1
 8001ac8:	d105      	bne.n	8001ad6 <HAL_RCC_OscConfig+0x3de>
 8001aca:	4b3c      	ldr	r3, [pc, #240]	@ (8001bbc <HAL_RCC_OscConfig+0x4c4>)
 8001acc:	69db      	ldr	r3, [r3, #28]
 8001ace:	4a3b      	ldr	r2, [pc, #236]	@ (8001bbc <HAL_RCC_OscConfig+0x4c4>)
 8001ad0:	f023 5380 	bic.w	r3, r3, #268435456	@ 0x10000000
 8001ad4:	61d3      	str	r3, [r2, #28]
 8001ad6:	687b      	ldr	r3, [r7, #4]
 8001ad8:	69db      	ldr	r3, [r3, #28]
 8001ada:	2b00      	cmp	r3, #0
 8001adc:	f000 8087 	beq.w	8001bee <HAL_RCC_OscConfig+0x4f6>
 8001ae0:	4b36      	ldr	r3, [pc, #216]	@ (8001bbc <HAL_RCC_OscConfig+0x4c4>)
 8001ae2:	685b      	ldr	r3, [r3, #4]
 8001ae4:	f003 030c 	and.w	r3, r3, #12
 8001ae8:	2b08      	cmp	r3, #8
 8001aea:	d061      	beq.n	8001bb0 <HAL_RCC_OscConfig+0x4b8>
 8001aec:	687b      	ldr	r3, [r7, #4]
 8001aee:	69db      	ldr	r3, [r3, #28]
 8001af0:	2b02      	cmp	r3, #2
 8001af2:	d146      	bne.n	8001b82 <HAL_RCC_OscConfig+0x48a>
 8001af4:	4b33      	ldr	r3, [pc, #204]	@ (8001bc4 <HAL_RCC_OscConfig+0x4cc>)
 8001af6:	2200      	movs	r2, #0
 8001af8:	601a      	str	r2, [r3, #0]
 8001afa:	f7fe feb3 	bl	8000864 <HAL_GetTick>
 8001afe:	6138      	str	r0, [r7, #16]
 8001b00:	e008      	b.n	8001b14 <HAL_RCC_OscConfig+0x41c>
 8001b02:	f7fe feaf 	bl	8000864 <HAL_GetTick>
 8001b06:	4602      	mov	r2, r0
 8001b08:	693b      	ldr	r3, [r7, #16]
 8001b0a:	1ad3      	subs	r3, r2, r3
 8001b0c:	2b02      	cmp	r3, #2
 8001b0e:	d901      	bls.n	8001b14 <HAL_RCC_OscConfig+0x41c>
 8001b10:	2303      	movs	r3, #3
 8001b12:	e06d      	b.n	8001bf0 <HAL_RCC_OscConfig+0x4f8>
 8001b14:	4b29      	ldr	r3, [pc, #164]	@ (8001bbc <HAL_RCC_OscConfig+0x4c4>)
 8001b16:	681b      	ldr	r3, [r3, #0]
 8001b18:	f003 7300 	and.w	r3, r3, #33554432	@ 0x2000000
 8001b1c:	2b00      	cmp	r3, #0
 8001b1e:	d1f0      	bne.n	8001b02 <HAL_RCC_OscConfig+0x40a>
 8001b20:	687b      	ldr	r3, [r7, #4]
 8001b22:	6a1b      	ldr	r3, [r3, #32]
 8001b24:	f5b3 3f80 	cmp.w	r3, #65536	@ 0x10000
 8001b28:	d108      	bne.n	8001b3c <HAL_RCC_OscConfig+0x444>
 8001b2a:	4b24      	ldr	r3, [pc, #144]	@ (8001bbc <HAL_RCC_OscConfig+0x4c4>)
 8001b2c:	685b      	ldr	r3, [r3, #4]
 8001b2e:	f423 3200 	bic.w	r2, r3, #131072	@ 0x20000
 8001b32:	687b      	ldr	r3, [r7, #4]
 8001b34:	689b      	ldr	r3, [r3, #8]
 8001b36:	4921      	ldr	r1, [pc, #132]	@ (8001bbc <HAL_RCC_OscConfig+0x4c4>)
 8001b38:	4313      	orrs	r3, r2
 8001b3a:	604b      	str	r3, [r1, #4]
 8001b3c:	4b1f      	ldr	r3, [pc, #124]	@ (8001bbc <HAL_RCC_OscConfig+0x4c4>)
 8001b3e:	685b      	ldr	r3, [r3, #4]
 8001b40:	f423 1274 	bic.w	r2, r3, #3997696	@ 0x3d0000
 8001b44:	687b      	ldr	r3, [r7, #4]
 8001b46:	6a19      	ldr	r1, [r3, #32]
 8001b48:	687b      	ldr	r3, [r7, #4]
 8001b4a:	6a5b      	ldr	r3, [r3, #36]	@ 0x24
 8001b4c:	430b      	orrs	r3, r1
 8001b4e:	491b      	ldr	r1, [pc, #108]	@ (8001bbc <HAL_RCC_OscConfig+0x4c4>)
 8001b50:	4313      	orrs	r3, r2
 8001b52:	604b      	str	r3, [r1, #4]
 8001b54:	4b1b      	ldr	r3, [pc, #108]	@ (8001bc4 <HAL_RCC_OscConfig+0x4cc>)
 8001b56:	2201      	movs	r2, #1
 8001b58:	601a      	str	r2, [r3, #0]
 8001b5a:	f7fe fe83 	bl	8000864 <HAL_GetTick>
 8001b5e:	6138      	str	r0, [r7, #16]
 8001b60:	e008      	b.n	8001b74 <HAL_RCC_OscConfig+0x47c>
 8001b62:	f7fe fe7f 	bl	8000864 <HAL_GetTick>
 8001b66:	4602      	mov	r2, r0
 8001b68:	693b      	ldr	r3, [r7, #16]
 8001b6a:	1ad3      	subs	r3, r2, r3
 8001b6c:	2b02      	cmp	r3, #2
 8001b6e:	d901      	bls.n	8001b74 <HAL_RCC_OscConfig+0x47c>
 8001b70:	2303      	movs	r3, #3
 8001b72:	e03d      	b.n	8001bf0 <HAL_RCC_OscConfig+0x4f8>
 8001b74:	4b11      	ldr	r3, [pc, #68]	@ (8001bbc <HAL_RCC_OscConfig+0x4c4>)
 8001b76:	681b      	ldr	r3, [r3, #0]
 8001b78:	f003 7300 	and.w	r3, r3, #33554432	@ 0x2000000
 8001b7c:	2b00      	cmp	r3, #0
 8001b7e:	d0f0      	beq.n	8001b62 <HAL_RCC_OscConfig+0x46a>
 8001b80:	e035      	b.n	8001bee <HAL_RCC_OscConfig+0x4f6>
 8001b82:	4b10      	ldr	r3, [pc, #64]	@ (8001bc4 <HAL_RCC_OscConfig+0x4cc>)
 8001b84:	2200      	movs	r2, #0
 8001b86:	601a      	str	r2, [r3, #0]
 8001b88:	f7fe fe6c 	bl	8000864 <HAL_GetTick>
 8001b8c:	6138      	str	r0, [r7, #16]
 8001b8e:	e008      	b.n	8001ba2 <HAL_RCC_OscConfig+0x4aa>
 8001b90:	f7fe fe68 	bl	8000864 <HAL_GetTick>
 8001b94:	4602      	mov	r2, r0
 8001b96:	693b      	ldr	r3, [r7, #16]
 8001b98:	1ad3      	subs	r3, r2, r3
 8001b9a:	2b02      	cmp	r3, #2
 8001b9c:	d901      	bls.n	8001ba2 <HAL_RCC_OscConfig+0x4aa>
 8001b9e:	2303      	movs	r3, #3
 8001ba0:	e026      	b.n	8001bf0 <HAL_RCC_OscConfig+0x4f8>
 8001ba2:	4b06      	ldr	r3, [pc, #24]	@ (8001bbc <HAL_RCC_OscConfig+0x4c4>)
 8001ba4:	681b      	ldr	r3, [r3, #0]
 8001ba6:	f003 7300 	and.w	r3, r3, #33554432	@ 0x2000000
 8001baa:	2b00      	cmp	r3, #0
 8001bac:	d1f0      	bne.n	8001b90 <HAL_RCC_OscConfig+0x498>
 8001bae:	e01e      	b.n	8001bee <HAL_RCC_OscConfig+0x4f6>
 8001bb0:	687b      	ldr	r3, [r7, #4]
 8001bb2:	69db      	ldr	r3, [r3, #28]
 8001bb4:	2b01      	cmp	r3, #1
 8001bb6:	d107      	bne.n	8001bc8 <HAL_RCC_OscConfig+0x4d0>
 8001bb8:	2301      	movs	r3, #1
 8001bba:	e019      	b.n	8001bf0 <HAL_RCC_OscConfig+0x4f8>
 8001bbc:	40021000 	.word	0x40021000
 8001bc0:	40007000 	.word	0x40007000
 8001bc4:	42420060 	.word	0x42420060
 8001bc8:	4b0b      	ldr	r3, [pc, #44]	@ (8001bf8 <HAL_RCC_OscConfig+0x500>)
 8001bca:	685b      	ldr	r3, [r3, #4]
 8001bcc:	60fb      	str	r3, [r7, #12]
 8001bce:	68fb      	ldr	r3, [r7, #12]
 8001bd0:	f403 3280 	and.w	r2, r3, #65536	@ 0x10000
 8001bd4:	687b      	ldr	r3, [r7, #4]
 8001bd6:	6a1b      	ldr	r3, [r3, #32]
 8001bd8:	429a      	cmp	r2, r3
 8001bda:	d106      	bne.n	8001bea <HAL_RCC_OscConfig+0x4f2>
 8001bdc:	68fb      	ldr	r3, [r7, #12]
 8001bde:	f403 1270 	and.w	r2, r3, #3932160	@ 0x3c0000
 8001be2:	687b      	ldr	r3, [r7, #4]
 8001be4:	6a5b      	ldr	r3, [r3, #36]	@ 0x24
 8001be6:	429a      	cmp	r2, r3
 8001be8:	d001      	beq.n	8001bee <HAL_RCC_OscConfig+0x4f6>
 8001bea:	2301      	movs	r3, #1
 8001bec:	e000      	b.n	8001bf0 <HAL_RCC_OscConfig+0x4f8>
 8001bee:	2300      	movs	r3, #0
 8001bf0:	4618      	mov	r0, r3
 8001bf2:	3718      	adds	r7, #24
 8001bf4:	46bd      	mov	sp, r7
 8001bf6:	bd80      	pop	{r7, pc}
 8001bf8:	40021000 	.word	0x40021000

08001bfc <HAL_RCC_ClockConfig>:
 8001bfc:	b580      	push	{r7, lr}
 8001bfe:	b084      	sub	sp, #16
 8001c00:	af00      	add	r7, sp, #0
 8001c02:	6078      	str	r0, [r7, #4]
 8001c04:	6039      	str	r1, [r7, #0]
 8001c06:	687b      	ldr	r3, [r7, #4]
 8001c08:	2b00      	cmp	r3, #0
 8001c0a:	d101      	bne.n	8001c10 <HAL_RCC_ClockConfig+0x14>
 8001c0c:	2301      	movs	r3, #1
 8001c0e:	e0d0      	b.n	8001db2 <HAL_RCC_ClockConfig+0x1b6>
 8001c10:	4b6a      	ldr	r3, [pc, #424]	@ (8001dbc <HAL_RCC_ClockConfig+0x1c0>)
 8001c12:	681b      	ldr	r3, [r3, #0]
 8001c14:	f003 0307 	and.w	r3, r3, #7
 8001c18:	683a      	ldr	r2, [r7, #0]
 8001c1a:	429a      	cmp	r2, r3
 8001c1c:	d910      	bls.n	8001c40 <HAL_RCC_ClockConfig+0x44>
 8001c1e:	4b67      	ldr	r3, [pc, #412]	@ (8001dbc <HAL_RCC_ClockConfig+0x1c0>)
 8001c20:	681b      	ldr	r3, [r3, #0]
 8001c22:	f023 0207 	bic.w	r2, r3, #7
 8001c26:	4965      	ldr	r1, [pc, #404]	@ (8001dbc <HAL_RCC_ClockConfig+0x1c0>)
 8001c28:	683b      	ldr	r3, [r7, #0]
 8001c2a:	4313      	orrs	r3, r2
 8001c2c:	600b      	str	r3, [r1, #0]
 8001c2e:	4b63      	ldr	r3, [pc, #396]	@ (8001dbc <HAL_RCC_ClockConfig+0x1c0>)
 8001c30:	681b      	ldr	r3, [r3, #0]
 8001c32:	f003 0307 	and.w	r3, r3, #7
 8001c36:	683a      	ldr	r2, [r7, #0]
 8001c38:	429a      	cmp	r2, r3
 8001c3a:	d001      	beq.n	8001c40 <HAL_RCC_ClockConfig+0x44>
 8001c3c:	2301      	movs	r3, #1
 8001c3e:	e0b8      	b.n	8001db2 <HAL_RCC_ClockConfig+0x1b6>
 8001c40:	687b      	ldr	r3, [r7, #4]
 8001c42:	681b      	ldr	r3, [r3, #0]
 8001c44:	f003 0302 	and.w	r3, r3, #2
 8001c48:	2b00      	cmp	r3, #0
 8001c4a:	d020      	beq.n	8001c8e <HAL_RCC_ClockConfig+0x92>
 8001c4c:	687b      	ldr	r3, [r7, #4]
 8001c4e:	681b      	ldr	r3, [r3, #0]
 8001c50:	f003 0304 	and.w	r3, r3, #4
 8001c54:	2b00      	cmp	r3, #0
 8001c56:	d005      	beq.n	8001c64 <HAL_RCC_ClockConfig+0x68>
 8001c58:	4b59      	ldr	r3, [pc, #356]	@ (8001dc0 <HAL_RCC_ClockConfig+0x1c4>)
 8001c5a:	685b      	ldr	r3, [r3, #4]
 8001c5c:	4a58      	ldr	r2, [pc, #352]	@ (8001dc0 <HAL_RCC_ClockConfig+0x1c4>)
 8001c5e:	f443 63e0 	orr.w	r3, r3, #1792	@ 0x700
 8001c62:	6053      	str	r3, [r2, #4]
 8001c64:	687b      	ldr	r3, [r7, #4]
 8001c66:	681b      	ldr	r3, [r3, #0]
 8001c68:	f003 0308 	and.w	r3, r3, #8
 8001c6c:	2b00      	cmp	r3, #0
 8001c6e:	d005      	beq.n	8001c7c <HAL_RCC_ClockConfig+0x80>
 8001c70:	4b53      	ldr	r3, [pc, #332]	@ (8001dc0 <HAL_RCC_ClockConfig+0x1c4>)
 8001c72:	685b      	ldr	r3, [r3, #4]
 8001c74:	4a52      	ldr	r2, [pc, #328]	@ (8001dc0 <HAL_RCC_ClockConfig+0x1c4>)
 8001c76:	f443 5360 	orr.w	r3, r3, #14336	@ 0x3800
 8001c7a:	6053      	str	r3, [r2, #4]
 8001c7c:	4b50      	ldr	r3, [pc, #320]	@ (8001dc0 <HAL_RCC_ClockConfig+0x1c4>)
 8001c7e:	685b      	ldr	r3, [r3, #4]
 8001c80:	f023 02f0 	bic.w	r2, r3, #240	@ 0xf0
 8001c84:	687b      	ldr	r3, [r7, #4]
 8001c86:	689b      	ldr	r3, [r3, #8]
 8001c88:	494d      	ldr	r1, [pc, #308]	@ (8001dc0 <HAL_RCC_ClockConfig+0x1c4>)
 8001c8a:	4313      	orrs	r3, r2
 8001c8c:	604b      	str	r3, [r1, #4]
 8001c8e:	687b      	ldr	r3, [r7, #4]
 8001c90:	681b      	ldr	r3, [r3, #0]
 8001c92:	f003 0301 	and.w	r3, r3, #1
 8001c96:	2b00      	cmp	r3, #0
 8001c98:	d040      	beq.n	8001d1c <HAL_RCC_ClockConfig+0x120>
 8001c9a:	687b      	ldr	r3, [r7, #4]
 8001c9c:	685b      	ldr	r3, [r3, #4]
 8001c9e:	2b01      	cmp	r3, #1
 8001ca0:	d107      	bne.n	8001cb2 <HAL_RCC_ClockConfig+0xb6>
 8001ca2:	4b47      	ldr	r3, [pc, #284]	@ (8001dc0 <HAL_RCC_ClockConfig+0x1c4>)
 8001ca4:	681b      	ldr	r3, [r3, #0]
 8001ca6:	f403 3300 	and.w	r3, r3, #131072	@ 0x20000
 8001caa:	2b00      	cmp	r3, #0
 8001cac:	d115      	bne.n	8001cda <HAL_RCC_ClockConfig+0xde>
 8001cae:	2301      	movs	r3, #1
 8001cb0:	e07f      	b.n	8001db2 <HAL_RCC_ClockConfig+0x1b6>
 8001cb2:	687b      	ldr	r3, [r7, #4]
 8001cb4:	685b      	ldr	r3, [r3, #4]
 8001cb6:	2b02      	cmp	r3, #2
 8001cb8:	d107      	bne.n	8001cca <HAL_RCC_ClockConfig+0xce>
 8001cba:	4b41      	ldr	r3, [pc, #260]	@ (8001dc0 <HAL_RCC_ClockConfig+0x1c4>)
 8001cbc:	681b      	ldr	r3, [r3, #0]
 8001cbe:	f003 7300 	and.w	r3, r3, #33554432	@ 0x2000000
 8001cc2:	2b00      	cmp	r3, #0
 8001cc4:	d109      	bne.n	8001cda <HAL_RCC_ClockConfig+0xde>
 8001cc6:	2301      	movs	r3, #1
 8001cc8:	e073      	b.n	8001db2 <HAL_RCC_ClockConfig+0x1b6>
 8001cca:	4b3d      	ldr	r3, [pc, #244]	@ (8001dc0 <HAL_RCC_ClockConfig+0x1c4>)
 8001ccc:	681b      	ldr	r3, [r3, #0]
 8001cce:	f003 0302 	and.w	r3, r3, #2
 8001cd2:	2b00      	cmp	r3, #0
 8001cd4:	d101      	bne.n	8001cda <HAL_RCC_ClockConfig+0xde>
 8001cd6:	2301      	movs	r3, #1
 8001cd8:	e06b      	b.n	8001db2 <HAL_RCC_ClockConfig+0x1b6>
 8001cda:	4b39      	ldr	r3, [pc, #228]	@ (8001dc0 <HAL_RCC_ClockConfig+0x1c4>)
 8001cdc:	685b      	ldr	r3, [r3, #4]
 8001cde:	f023 0203 	bic.w	r2, r3, #3
 8001ce2:	687b      	ldr	r3, [r7, #4]
 8001ce4:	685b      	ldr	r3, [r3, #4]
 8001ce6:	4936      	ldr	r1, [pc, #216]	@ (8001dc0 <HAL_RCC_ClockConfig+0x1c4>)
 8001ce8:	4313      	orrs	r3, r2
 8001cea:	604b      	str	r3, [r1, #4]
 8001cec:	f7fe fdba 	bl	8000864 <HAL_GetTick>
 8001cf0:	60f8      	str	r0, [r7, #12]
 8001cf2:	e00a      	b.n	8001d0a <HAL_RCC_ClockConfig+0x10e>
 8001cf4:	f7fe fdb6 	bl	8000864 <HAL_GetTick>
 8001cf8:	4602      	mov	r2, r0
 8001cfa:	68fb      	ldr	r3, [r7, #12]
 8001cfc:	1ad3      	subs	r3, r2, r3
 8001cfe:	f241 3288 	movw	r2, #5000	@ 0x1388
 8001d02:	4293      	cmp	r3, r2
 8001d04:	d901      	bls.n	8001d0a <HAL_RCC_ClockConfig+0x10e>
 8001d06:	2303      	movs	r3, #3
 8001d08:	e053      	b.n	8001db2 <HAL_RCC_ClockConfig+0x1b6>
 8001d0a:	4b2d      	ldr	r3, [pc, #180]	@ (8001dc0 <HAL_RCC_ClockConfig+0x1c4>)
 8001d0c:	685b      	ldr	r3, [r3, #4]
 8001d0e:	f003 020c 	and.w	r2, r3, #12
 8001d12:	687b      	ldr	r3, [r7, #4]
 8001d14:	685b      	ldr	r3, [r3, #4]
 8001d16:	009b      	lsls	r3, r3, #2
 8001d18:	429a      	cmp	r2, r3
 8001d1a:	d1eb      	bne.n	8001cf4 <HAL_RCC_ClockConfig+0xf8>
 8001d1c:	4b27      	ldr	r3, [pc, #156]	@ (8001dbc <HAL_RCC_ClockConfig+0x1c0>)
 8001d1e:	681b      	ldr	r3, [r3, #0]
 8001d20:	f003 0307 	and.w	r3, r3, #7
 8001d24:	683a      	ldr	r2, [r7, #0]
 8001d26:	429a      	cmp	r2, r3
 8001d28:	d210      	bcs.n	8001d4c <HAL_RCC_ClockConfig+0x150>
 8001d2a:	4b24      	ldr	r3, [pc, #144]	@ (8001dbc <HAL_RCC_ClockConfig+0x1c0>)
 8001d2c:	681b      	ldr	r3, [r3, #0]
 8001d2e:	f023 0207 	bic.w	r2, r3, #7
 8001d32:	4922      	ldr	r1, [pc, #136]	@ (8001dbc <HAL_RCC_ClockConfig+0x1c0>)
 8001d34:	683b      	ldr	r3, [r7, #0]
 8001d36:	4313      	orrs	r3, r2
 8001d38:	600b      	str	r3, [r1, #0]
 8001d3a:	4b20      	ldr	r3, [pc, #128]	@ (8001dbc <HAL_RCC_ClockConfig+0x1c0>)
 8001d3c:	681b      	ldr	r3, [r3, #0]
 8001d3e:	f003 0307 	and.w	r3, r3, #7
 8001d42:	683a      	ldr	r2, [r7, #0]
 8001d44:	429a      	cmp	r2, r3
 8001d46:	d001      	beq.n	8001d4c <HAL_RCC_ClockConfig+0x150>
 8001d48:	2301      	movs	r3, #1
 8001d4a:	e032      	b.n	8001db2 <HAL_RCC_ClockConfig+0x1b6>
 8001d4c:	687b      	ldr	r3, [r7, #4]
 8001d4e:	681b      	ldr	r3, [r3, #0]
 8001d50:	f003 0304 	and.w	r3, r3, #4
 8001d54:	2b00      	cmp	r3, #0
 8001d56:	d008      	beq.n	8001d6a <HAL_RCC_ClockConfig+0x16e>
 8001d58:	4b19      	ldr	r3, [pc, #100]	@ (8001dc0 <HAL_RCC_ClockConfig+0x1c4>)
 8001d5a:	685b      	ldr	r3, [r3, #4]
 8001d5c:	f423 62e0 	bic.w	r2, r3, #1792	@ 0x700
 8001d60:	687b      	ldr	r3, [r7, #4]
 8001d62:	68db      	ldr	r3, [r3, #12]
 8001d64:	4916      	ldr	r1, [pc, #88]	@ (8001dc0 <HAL_RCC_ClockConfig+0x1c4>)
 8001d66:	4313      	orrs	r3, r2
 8001d68:	604b      	str	r3, [r1, #4]
 8001d6a:	687b      	ldr	r3, [r7, #4]
 8001d6c:	681b      	ldr	r3, [r3, #0]
 8001d6e:	f003 0308 	and.w	r3, r3, #8
 8001d72:	2b00      	cmp	r3, #0
 8001d74:	d009      	beq.n	8001d8a <HAL_RCC_ClockConfig+0x18e>
 8001d76:	4b12      	ldr	r3, [pc, #72]	@ (8001dc0 <HAL_RCC_ClockConfig+0x1c4>)
 8001d78:	685b      	ldr	r3, [r3, #4]
 8001d7a:	f423 5260 	bic.w	r2, r3, #14336	@ 0x3800
 8001d7e:	687b      	ldr	r3, [r7, #4]
 8001d80:	691b      	ldr	r3, [r3, #16]
 8001d82:	00db      	lsls	r3, r3, #3
 8001d84:	490e      	ldr	r1, [pc, #56]	@ (8001dc0 <HAL_RCC_ClockConfig+0x1c4>)
 8001d86:	4313      	orrs	r3, r2
 8001d88:	604b      	str	r3, [r1, #4]
 8001d8a:	f000 f821 	bl	8001dd0 <HAL_RCC_GetSysClockFreq>
 8001d8e:	4602      	mov	r2, r0
 8001d90:	4b0b      	ldr	r3, [pc, #44]	@ (8001dc0 <HAL_RCC_ClockConfig+0x1c4>)
 8001d92:	685b      	ldr	r3, [r3, #4]
 8001d94:	091b      	lsrs	r3, r3, #4
 8001d96:	f003 030f 	and.w	r3, r3, #15
 8001d9a:	490a      	ldr	r1, [pc, #40]	@ (8001dc4 <HAL_RCC_ClockConfig+0x1c8>)
 8001d9c:	5ccb      	ldrb	r3, [r1, r3]
 8001d9e:	fa22 f303 	lsr.w	r3, r2, r3
 8001da2:	4a09      	ldr	r2, [pc, #36]	@ (8001dc8 <HAL_RCC_ClockConfig+0x1cc>)
 8001da4:	6013      	str	r3, [r2, #0]
 8001da6:	4b09      	ldr	r3, [pc, #36]	@ (8001dcc <HAL_RCC_ClockConfig+0x1d0>)
 8001da8:	681b      	ldr	r3, [r3, #0]
 8001daa:	4618      	mov	r0, r3
 8001dac:	f7fe fd18 	bl	80007e0 <HAL_InitTick>
 8001db0:	2300      	movs	r3, #0
 8001db2:	4618      	mov	r0, r3
 8001db4:	3710      	adds	r7, #16
 8001db6:	46bd      	mov	sp, r7
 8001db8:	bd80      	pop	{r7, pc}
 8001dba:	bf00      	nop
 8001dbc:	40022000 	.word	0x40022000
 8001dc0:	40021000 	.word	0x40021000
 8001dc4:	08002074 	.word	0x08002074
 8001dc8:	20000000 	.word	0x20000000
 8001dcc:	20000004 	.word	0x20000004

08001dd0 <HAL_RCC_GetSysClockFreq>:
 8001dd0:	b480      	push	{r7}
 8001dd2:	b087      	sub	sp, #28
 8001dd4:	af00      	add	r7, sp, #0
 8001dd6:	2300      	movs	r3, #0
 8001dd8:	60fb      	str	r3, [r7, #12]
 8001dda:	2300      	movs	r3, #0
 8001ddc:	60bb      	str	r3, [r7, #8]
 8001dde:	2300      	movs	r3, #0
 8001de0:	617b      	str	r3, [r7, #20]
 8001de2:	2300      	movs	r3, #0
 8001de4:	607b      	str	r3, [r7, #4]
 8001de6:	2300      	movs	r3, #0
 8001de8:	613b      	str	r3, [r7, #16]
 8001dea:	4b1e      	ldr	r3, [pc, #120]	@ (8001e64 <HAL_RCC_GetSysClockFreq+0x94>)
 8001dec:	685b      	ldr	r3, [r3, #4]
 8001dee:	60fb      	str	r3, [r7, #12]
 8001df0:	68fb      	ldr	r3, [r7, #12]
 8001df2:	f003 030c 	and.w	r3, r3, #12
 8001df6:	2b04      	cmp	r3, #4
 8001df8:	d002      	beq.n	8001e00 <HAL_RCC_GetSysClockFreq+0x30>
 8001dfa:	2b08      	cmp	r3, #8
 8001dfc:	d003      	beq.n	8001e06 <HAL_RCC_GetSysClockFreq+0x36>
 8001dfe:	e027      	b.n	8001e50 <HAL_RCC_GetSysClockFreq+0x80>
 8001e00:	4b19      	ldr	r3, [pc, #100]	@ (8001e68 <HAL_RCC_GetSysClockFreq+0x98>)
 8001e02:	613b      	str	r3, [r7, #16]
 8001e04:	e027      	b.n	8001e56 <HAL_RCC_GetSysClockFreq+0x86>
 8001e06:	68fb      	ldr	r3, [r7, #12]
 8001e08:	0c9b      	lsrs	r3, r3, #18
 8001e0a:	f003 030f 	and.w	r3, r3, #15
 8001e0e:	4a17      	ldr	r2, [pc, #92]	@ (8001e6c <HAL_RCC_GetSysClockFreq+0x9c>)
 8001e10:	5cd3      	ldrb	r3, [r2, r3]
 8001e12:	607b      	str	r3, [r7, #4]
 8001e14:	68fb      	ldr	r3, [r7, #12]
 8001e16:	f403 3380 	and.w	r3, r3, #65536	@ 0x10000
 8001e1a:	2b00      	cmp	r3, #0
 8001e1c:	d010      	beq.n	8001e40 <HAL_RCC_GetSysClockFreq+0x70>
 8001e1e:	4b11      	ldr	r3, [pc, #68]	@ (8001e64 <HAL_RCC_GetSysClockFreq+0x94>)
 8001e20:	685b      	ldr	r3, [r3, #4]
 8001e22:	0c5b      	lsrs	r3, r3, #17
 8001e24:	f003 0301 	and.w	r3, r3, #1
 8001e28:	4a11      	ldr	r2, [pc, #68]	@ (8001e70 <HAL_RCC_GetSysClockFreq+0xa0>)
 8001e2a:	5cd3      	ldrb	r3, [r2, r3]
 8001e2c:	60bb      	str	r3, [r7, #8]
 8001e2e:	687b      	ldr	r3, [r7, #4]
 8001e30:	4a0d      	ldr	r2, [pc, #52]	@ (8001e68 <HAL_RCC_GetSysClockFreq+0x98>)
 8001e32:	fb03 f202 	mul.w	r2, r3, r2
 8001e36:	68bb      	ldr	r3, [r7, #8]
 8001e38:	fbb2 f3f3 	udiv	r3, r2, r3
 8001e3c:	617b      	str	r3, [r7, #20]
 8001e3e:	e004      	b.n	8001e4a <HAL_RCC_GetSysClockFreq+0x7a>
 8001e40:	687b      	ldr	r3, [r7, #4]
 8001e42:	4a0c      	ldr	r2, [pc, #48]	@ (8001e74 <HAL_RCC_GetSysClockFreq+0xa4>)
 8001e44:	fb02 f303 	mul.w	r3, r2, r3
 8001e48:	617b      	str	r3, [r7, #20]
 8001e4a:	697b      	ldr	r3, [r7, #20]
 8001e4c:	613b      	str	r3, [r7, #16]
 8001e4e:	e002      	b.n	8001e56 <HAL_RCC_GetSysClockFreq+0x86>
 8001e50:	4b05      	ldr	r3, [pc, #20]	@ (8001e68 <HAL_RCC_GetSysClockFreq+0x98>)
 8001e52:	613b      	str	r3, [r7, #16]
 8001e54:	bf00      	nop
 8001e56:	693b      	ldr	r3, [r7, #16]
 8001e58:	4618      	mov	r0, r3
 8001e5a:	371c      	adds	r7, #28
 8001e5c:	46bd      	mov	sp, r7
 8001e5e:	bc80      	pop	{r7}
 8001e60:	4770      	bx	lr
 8001e62:	bf00      	nop
 8001e64:	40021000 	.word	0x40021000
 8001e68:	007a1200 	.word	0x007a1200
 8001e6c:	0800208c 	.word	0x0800208c
 8001e70:	0800209c 	.word	0x0800209c
 8001e74:	003d0900 	.word	0x003d0900

08001e78 <HAL_RCC_GetHCLKFreq>:
 8001e78:	b480      	push	{r7}
 8001e7a:	af00      	add	r7, sp, #0
 8001e7c:	4b02      	ldr	r3, [pc, #8]	@ (8001e88 <HAL_RCC_GetHCLKFreq+0x10>)
 8001e7e:	681b      	ldr	r3, [r3, #0]
 8001e80:	4618      	mov	r0, r3
 8001e82:	46bd      	mov	sp, r7
 8001e84:	bc80      	pop	{r7}
 8001e86:	4770      	bx	lr
 8001e88:	20000000 	.word	0x20000000

08001e8c <HAL_RCC_GetPCLK1Freq>:
 8001e8c:	b580      	push	{r7, lr}
 8001e8e:	af00      	add	r7, sp, #0
 8001e90:	f7ff fff2 	bl	8001e78 <HAL_RCC_GetHCLKFreq>
 8001e94:	4602      	mov	r2, r0
 8001e96:	4b05      	ldr	r3, [pc, #20]	@ (8001eac <HAL_RCC_GetPCLK1Freq+0x20>)
 8001e98:	685b      	ldr	r3, [r3, #4]
 8001e9a:	0a1b      	lsrs	r3, r3, #8
 8001e9c:	f003 0307 	and.w	r3, r3, #7
 8001ea0:	4903      	ldr	r1, [pc, #12]	@ (8001eb0 <HAL_RCC_GetPCLK1Freq+0x24>)
 8001ea2:	5ccb      	ldrb	r3, [r1, r3]
 8001ea4:	fa22 f303 	lsr.w	r3, r2, r3
 8001ea8:	4618      	mov	r0, r3
 8001eaa:	bd80      	pop	{r7, pc}
 8001eac:	40021000 	.word	0x40021000
 8001eb0:	08002084 	.word	0x08002084

08001eb4 <RCC_Delay>:
 8001eb4:	b480      	push	{r7}
 8001eb6:	b085      	sub	sp, #20
 8001eb8:	af00      	add	r7, sp, #0
 8001eba:	6078      	str	r0, [r7, #4]
 8001ebc:	4b0a      	ldr	r3, [pc, #40]	@ (8001ee8 <RCC_Delay+0x34>)
 8001ebe:	681b      	ldr	r3, [r3, #0]
 8001ec0:	4a0a      	ldr	r2, [pc, #40]	@ (8001eec <RCC_Delay+0x38>)
 8001ec2:	fba2 2303 	umull	r2, r3, r2, r3
 8001ec6:	0a5b      	lsrs	r3, r3, #9
 8001ec8:	687a      	ldr	r2, [r7, #4]
 8001eca:	fb02 f303 	mul.w	r3, r2, r3
 8001ece:	60fb      	str	r3, [r7, #12]
 8001ed0:	bf00      	nop
 8001ed2:	68fb      	ldr	r3, [r7, #12]
 8001ed4:	1e5a      	subs	r2, r3, #1
 8001ed6:	60fa      	str	r2, [r7, #12]
 8001ed8:	2b00      	cmp	r3, #0
 8001eda:	d1f9      	bne.n	8001ed0 <RCC_Delay+0x1c>
 8001edc:	bf00      	nop
 8001ede:	bf00      	nop
 8001ee0:	3714      	adds	r7, #20
 8001ee2:	46bd      	mov	sp, r7
 8001ee4:	bc80      	pop	{r7}
 8001ee6:	4770      	bx	lr
 8001ee8:	20000000 	.word	0x20000000
 8001eec:	10624dd3 	.word	0x10624dd3

08001ef0 <HAL_SPI_Init>:
 8001ef0:	b580      	push	{r7, lr}
 8001ef2:	b082      	sub	sp, #8
 8001ef4:	af00      	add	r7, sp, #0
 8001ef6:	6078      	str	r0, [r7, #4]
 8001ef8:	687b      	ldr	r3, [r7, #4]
 8001efa:	2b00      	cmp	r3, #0
 8001efc:	d101      	bne.n	8001f02 <HAL_SPI_Init+0x12>
 8001efe:	2301      	movs	r3, #1
 8001f00:	e076      	b.n	8001ff0 <HAL_SPI_Init+0x100>
 8001f02:	687b      	ldr	r3, [r7, #4]
 8001f04:	6a5b      	ldr	r3, [r3, #36]	@ 0x24
 8001f06:	2b00      	cmp	r3, #0
 8001f08:	d108      	bne.n	8001f1c <HAL_SPI_Init+0x2c>
 8001f0a:	687b      	ldr	r3, [r7, #4]
 8001f0c:	685b      	ldr	r3, [r3, #4]
 8001f0e:	f5b3 7f82 	cmp.w	r3, #260	@ 0x104
 8001f12:	d009      	beq.n	8001f28 <HAL_SPI_Init+0x38>
 8001f14:	687b      	ldr	r3, [r7, #4]
 8001f16:	2200      	movs	r2, #0
 8001f18:	61da      	str	r2, [r3, #28]
 8001f1a:	e005      	b.n	8001f28 <HAL_SPI_Init+0x38>
 8001f1c:	687b      	ldr	r3, [r7, #4]
 8001f1e:	2200      	movs	r2, #0
 8001f20:	611a      	str	r2, [r3, #16]
 8001f22:	687b      	ldr	r3, [r7, #4]
 8001f24:	2200      	movs	r2, #0
 8001f26:	615a      	str	r2, [r3, #20]
 8001f28:	687b      	ldr	r3, [r7, #4]
 8001f2a:	2200      	movs	r2, #0
 8001f2c:	629a      	str	r2, [r3, #40]	@ 0x28
 8001f2e:	687b      	ldr	r3, [r7, #4]
 8001f30:	f893 3051 	ldrb.w	r3, [r3, #81]	@ 0x51
 8001f34:	b2db      	uxtb	r3, r3
 8001f36:	2b00      	cmp	r3, #0
 8001f38:	d106      	bne.n	8001f48 <HAL_SPI_Init+0x58>
 8001f3a:	687b      	ldr	r3, [r7, #4]
 8001f3c:	2200      	movs	r2, #0
 8001f3e:	f883 2050 	strb.w	r2, [r3, #80]	@ 0x50
 8001f42:	6878      	ldr	r0, [r7, #4]
 8001f44:	f7fe fb9e 	bl	8000684 <HAL_SPI_MspInit>
 8001f48:	687b      	ldr	r3, [r7, #4]
 8001f4a:	2202      	movs	r2, #2
 8001f4c:	f883 2051 	strb.w	r2, [r3, #81]	@ 0x51
 8001f50:	687b      	ldr	r3, [r7, #4]
 8001f52:	681b      	ldr	r3, [r3, #0]
 8001f54:	681a      	ldr	r2, [r3, #0]
 8001f56:	687b      	ldr	r3, [r7, #4]
 8001f58:	681b      	ldr	r3, [r3, #0]
 8001f5a:	f022 0240 	bic.w	r2, r2, #64	@ 0x40
 8001f5e:	601a      	str	r2, [r3, #0]
 8001f60:	687b      	ldr	r3, [r7, #4]
 8001f62:	685b      	ldr	r3, [r3, #4]
 8001f64:	f403 7282 	and.w	r2, r3, #260	@ 0x104
 8001f68:	687b      	ldr	r3, [r7, #4]
 8001f6a:	689b      	ldr	r3, [r3, #8]
 8001f6c:	f403 4304 	and.w	r3, r3, #33792	@ 0x8400
 8001f70:	431a      	orrs	r2, r3
 8001f72:	687b      	ldr	r3, [r7, #4]
 8001f74:	68db      	ldr	r3, [r3, #12]
 8001f76:	f403 6300 	and.w	r3, r3, #2048	@ 0x800
 8001f7a:	431a      	orrs	r2, r3
 8001f7c:	687b      	ldr	r3, [r7, #4]
 8001f7e:	691b      	ldr	r3, [r3, #16]
 8001f80:	f003 0302 	and.w	r3, r3, #2
 8001f84:	431a      	orrs	r2, r3
 8001f86:	687b      	ldr	r3, [r7, #4]
 8001f88:	695b      	ldr	r3, [r3, #20]
 8001f8a:	f003 0301 	and.w	r3, r3, #1
 8001f8e:	431a      	orrs	r2, r3
 8001f90:	687b      	ldr	r3, [r7, #4]
 8001f92:	699b      	ldr	r3, [r3, #24]
 8001f94:	f403 7300 	and.w	r3, r3, #512	@ 0x200
 8001f98:	431a      	orrs	r2, r3
 8001f9a:	687b      	ldr	r3, [r7, #4]
 8001f9c:	69db      	ldr	r3, [r3, #28]
 8001f9e:	f003 0338 	and.w	r3, r3, #56	@ 0x38
 8001fa2:	431a      	orrs	r2, r3
 8001fa4:	687b      	ldr	r3, [r7, #4]
 8001fa6:	6a1b      	ldr	r3, [r3, #32]
 8001fa8:	f003 0380 	and.w	r3, r3, #128	@ 0x80
 8001fac:	ea42 0103 	orr.w	r1, r2, r3
 8001fb0:	687b      	ldr	r3, [r7, #4]
 8001fb2:	6a9b      	ldr	r3, [r3, #40]	@ 0x28
 8001fb4:	f403 5200 	and.w	r2, r3, #8192	@ 0x2000
 8001fb8:	687b      	ldr	r3, [r7, #4]
 8001fba:	681b      	ldr	r3, [r3, #0]
 8001fbc:	430a      	orrs	r2, r1
 8001fbe:	601a      	str	r2, [r3, #0]
 8001fc0:	687b      	ldr	r3, [r7, #4]
 8001fc2:	699b      	ldr	r3, [r3, #24]
 8001fc4:	0c1a      	lsrs	r2, r3, #16
 8001fc6:	687b      	ldr	r3, [r7, #4]
 8001fc8:	681b      	ldr	r3, [r3, #0]
 8001fca:	f002 0204 	and.w	r2, r2, #4
 8001fce:	605a      	str	r2, [r3, #4]
 8001fd0:	687b      	ldr	r3, [r7, #4]
 8001fd2:	681b      	ldr	r3, [r3, #0]
 8001fd4:	69da      	ldr	r2, [r3, #28]
 8001fd6:	687b      	ldr	r3, [r7, #4]
 8001fd8:	681b      	ldr	r3, [r3, #0]
 8001fda:	f422 6200 	bic.w	r2, r2, #2048	@ 0x800
 8001fde:	61da      	str	r2, [r3, #28]
 8001fe0:	687b      	ldr	r3, [r7, #4]
 8001fe2:	2200      	movs	r2, #0
 8001fe4:	655a      	str	r2, [r3, #84]	@ 0x54
 8001fe6:	687b      	ldr	r3, [r7, #4]
 8001fe8:	2201      	movs	r2, #1
 8001fea:	f883 2051 	strb.w	r2, [r3, #81]	@ 0x51
 8001fee:	2300      	movs	r3, #0
 8001ff0:	4618      	mov	r0, r3
 8001ff2:	3708      	adds	r7, #8
 8001ff4:	46bd      	mov	sp, r7
 8001ff6:	bd80      	pop	{r7, pc}

08001ff8 <memset>:
 8001ff8:	4603      	mov	r3, r0
 8001ffa:	4402      	add	r2, r0
 8001ffc:	4293      	cmp	r3, r2
 8001ffe:	d100      	bne.n	8002002 <memset+0xa>
 8002000:	4770      	bx	lr
 8002002:	f803 1b01 	strb.w	r1, [r3], #1
 8002006:	e7f9      	b.n	8001ffc <memset+0x4>

08002008 <__libc_init_array>:
 8002008:	b570      	push	{r4, r5, r6, lr}
 800200a:	2600      	movs	r6, #0
 800200c:	4d0c      	ldr	r5, [pc, #48]	@ (8002040 <__libc_init_array+0x38>)
 800200e:	4c0d      	ldr	r4, [pc, #52]	@ (8002044 <__libc_init_array+0x3c>)
 8002010:	1b64      	subs	r4, r4, r5
 8002012:	10a4      	asrs	r4, r4, #2
 8002014:	42a6      	cmp	r6, r4
 8002016:	d109      	bne.n	800202c <__libc_init_array+0x24>
 8002018:	f000 f81a 	bl	8002050 <_init>
 800201c:	2600      	movs	r6, #0
 800201e:	4d0a      	ldr	r5, [pc, #40]	@ (8002048 <__libc_init_array+0x40>)
 8002020:	4c0a      	ldr	r4, [pc, #40]	@ (800204c <__libc_init_array+0x44>)
 8002022:	1b64      	subs	r4, r4, r5
 8002024:	10a4      	asrs	r4, r4, #2
 8002026:	42a6      	cmp	r6, r4
 8002028:	d105      	bne.n	8002036 <__libc_init_array+0x2e>
 800202a:	bd70      	pop	{r4, r5, r6, pc}
 800202c:	f855 3b04 	ldr.w	r3, [r5], #4
 8002030:	4798      	blx	r3
 8002032:	3601      	adds	r6, #1
 8002034:	e7ee      	b.n	8002014 <__libc_init_array+0xc>
 8002036:	f855 3b04 	ldr.w	r3, [r5], #4
 800203a:	4798      	blx	r3
 800203c:	3601      	adds	r6, #1
 800203e:	e7f2      	b.n	8002026 <__libc_init_array+0x1e>
 8002040:	080020a0 	.word	0x080020a0
 8002044:	080020a0 	.word	0x080020a0
 8002048:	080020a0 	.word	0x080020a0
 800204c:	080020a4 	.word	0x080020a4

08002050 <_init>:
 8002050:	b5f8      	push	{r3, r4, r5, r6, r7, lr}
 8002052:	bf00      	nop
 8002054:	bcf8      	pop	{r3, r4, r5, r6, r7}
 8002056:	bc08      	pop	{r3}
 8002058:	469e      	mov	lr, r3
 800205a:	4770      	bx	lr

0800205c <_fini>:
 800205c:	b5f8      	push	{r3, r4, r5, r6, r7, lr}
 800205e:	bf00      	nop
 8002060:	bcf8      	pop	{r3, r4, r5, r6, r7}
 8002062:	bc08      	pop	{r3}
 8002064:	469e      	mov	lr, r3
 8002066:	4770      	bx	lr
